
bomb:     file format elf32-i386


Disassembly of section .init:

00001000 <_init>:
    1000:	f3 0f 1e fb          	endbr32 
    1004:	53                   	push   ebx
    1005:	83 ec 08             	sub    esp,0x8
    1008:	e8 03 04 00 00       	call   1410 <__x86.get_pc_thunk.bx>
    100d:	81 c3 63 4f 00 00    	add    ebx,0x4f63
    1013:	8b 83 84 00 00 00    	mov    eax,DWORD PTR [ebx+0x84]
    1019:	85 c0                	test   eax,eax
    101b:	74 02                	je     101f <_init+0x1f>
    101d:	ff d0                	call   eax
    101f:	83 c4 08             	add    esp,0x8
    1022:	5b                   	pop    ebx
    1023:	c3                   	ret    

Disassembly of section .plt:

00001030 <.plt>:
    1030:	ff b3 04 00 00 00    	push   DWORD PTR [ebx+0x4]
    1036:	ff a3 08 00 00 00    	jmp    DWORD PTR [ebx+0x8]
    103c:	0f 1f 40 00          	nop    DWORD PTR [eax+0x0]
    1040:	f3 0f 1e fb          	endbr32 
    1044:	68 00 00 00 00       	push   0x0
    1049:	e9 e2 ff ff ff       	jmp    1030 <.plt>
    104e:	66 90                	xchg   ax,ax
    1050:	f3 0f 1e fb          	endbr32 
    1054:	68 08 00 00 00       	push   0x8
    1059:	e9 d2 ff ff ff       	jmp    1030 <.plt>
    105e:	66 90                	xchg   ax,ax
    1060:	f3 0f 1e fb          	endbr32 
    1064:	68 10 00 00 00       	push   0x10
    1069:	e9 c2 ff ff ff       	jmp    1030 <.plt>
    106e:	66 90                	xchg   ax,ax
    1070:	f3 0f 1e fb          	endbr32 
    1074:	68 18 00 00 00       	push   0x18
    1079:	e9 b2 ff ff ff       	jmp    1030 <.plt>
    107e:	66 90                	xchg   ax,ax
    1080:	f3 0f 1e fb          	endbr32 
    1084:	68 20 00 00 00       	push   0x20
    1089:	e9 a2 ff ff ff       	jmp    1030 <.plt>
    108e:	66 90                	xchg   ax,ax
    1090:	f3 0f 1e fb          	endbr32 
    1094:	68 28 00 00 00       	push   0x28
    1099:	e9 92 ff ff ff       	jmp    1030 <.plt>
    109e:	66 90                	xchg   ax,ax
    10a0:	f3 0f 1e fb          	endbr32 
    10a4:	68 30 00 00 00       	push   0x30
    10a9:	e9 82 ff ff ff       	jmp    1030 <.plt>
    10ae:	66 90                	xchg   ax,ax
    10b0:	f3 0f 1e fb          	endbr32 
    10b4:	68 38 00 00 00       	push   0x38
    10b9:	e9 72 ff ff ff       	jmp    1030 <.plt>
    10be:	66 90                	xchg   ax,ax
    10c0:	f3 0f 1e fb          	endbr32 
    10c4:	68 40 00 00 00       	push   0x40
    10c9:	e9 62 ff ff ff       	jmp    1030 <.plt>
    10ce:	66 90                	xchg   ax,ax
    10d0:	f3 0f 1e fb          	endbr32 
    10d4:	68 48 00 00 00       	push   0x48
    10d9:	e9 52 ff ff ff       	jmp    1030 <.plt>
    10de:	66 90                	xchg   ax,ax
    10e0:	f3 0f 1e fb          	endbr32 
    10e4:	68 50 00 00 00       	push   0x50
    10e9:	e9 42 ff ff ff       	jmp    1030 <.plt>
    10ee:	66 90                	xchg   ax,ax
    10f0:	f3 0f 1e fb          	endbr32 
    10f4:	68 58 00 00 00       	push   0x58
    10f9:	e9 32 ff ff ff       	jmp    1030 <.plt>
    10fe:	66 90                	xchg   ax,ax
    1100:	f3 0f 1e fb          	endbr32 
    1104:	68 60 00 00 00       	push   0x60
    1109:	e9 22 ff ff ff       	jmp    1030 <.plt>
    110e:	66 90                	xchg   ax,ax
    1110:	f3 0f 1e fb          	endbr32 
    1114:	68 68 00 00 00       	push   0x68
    1119:	e9 12 ff ff ff       	jmp    1030 <.plt>
    111e:	66 90                	xchg   ax,ax
    1120:	f3 0f 1e fb          	endbr32 
    1124:	68 70 00 00 00       	push   0x70
    1129:	e9 02 ff ff ff       	jmp    1030 <.plt>
    112e:	66 90                	xchg   ax,ax
    1130:	f3 0f 1e fb          	endbr32 
    1134:	68 78 00 00 00       	push   0x78
    1139:	e9 f2 fe ff ff       	jmp    1030 <.plt>
    113e:	66 90                	xchg   ax,ax
    1140:	f3 0f 1e fb          	endbr32 
    1144:	68 80 00 00 00       	push   0x80
    1149:	e9 e2 fe ff ff       	jmp    1030 <.plt>
    114e:	66 90                	xchg   ax,ax
    1150:	f3 0f 1e fb          	endbr32 
    1154:	68 88 00 00 00       	push   0x88
    1159:	e9 d2 fe ff ff       	jmp    1030 <.plt>
    115e:	66 90                	xchg   ax,ax
    1160:	f3 0f 1e fb          	endbr32 
    1164:	68 90 00 00 00       	push   0x90
    1169:	e9 c2 fe ff ff       	jmp    1030 <.plt>
    116e:	66 90                	xchg   ax,ax
    1170:	f3 0f 1e fb          	endbr32 
    1174:	68 98 00 00 00       	push   0x98
    1179:	e9 b2 fe ff ff       	jmp    1030 <.plt>
    117e:	66 90                	xchg   ax,ax
    1180:	f3 0f 1e fb          	endbr32 
    1184:	68 a0 00 00 00       	push   0xa0
    1189:	e9 a2 fe ff ff       	jmp    1030 <.plt>
    118e:	66 90                	xchg   ax,ax
    1190:	f3 0f 1e fb          	endbr32 
    1194:	68 a8 00 00 00       	push   0xa8
    1199:	e9 92 fe ff ff       	jmp    1030 <.plt>
    119e:	66 90                	xchg   ax,ax
    11a0:	f3 0f 1e fb          	endbr32 
    11a4:	68 b0 00 00 00       	push   0xb0
    11a9:	e9 82 fe ff ff       	jmp    1030 <.plt>
    11ae:	66 90                	xchg   ax,ax
    11b0:	f3 0f 1e fb          	endbr32 
    11b4:	68 b8 00 00 00       	push   0xb8
    11b9:	e9 72 fe ff ff       	jmp    1030 <.plt>
    11be:	66 90                	xchg   ax,ax
    11c0:	f3 0f 1e fb          	endbr32 
    11c4:	68 c0 00 00 00       	push   0xc0
    11c9:	e9 62 fe ff ff       	jmp    1030 <.plt>
    11ce:	66 90                	xchg   ax,ax
    11d0:	f3 0f 1e fb          	endbr32 
    11d4:	68 c8 00 00 00       	push   0xc8
    11d9:	e9 52 fe ff ff       	jmp    1030 <.plt>
    11de:	66 90                	xchg   ax,ax
    11e0:	f3 0f 1e fb          	endbr32 
    11e4:	68 d0 00 00 00       	push   0xd0
    11e9:	e9 42 fe ff ff       	jmp    1030 <.plt>
    11ee:	66 90                	xchg   ax,ax
    11f0:	f3 0f 1e fb          	endbr32 
    11f4:	68 d8 00 00 00       	push   0xd8
    11f9:	e9 32 fe ff ff       	jmp    1030 <.plt>
    11fe:	66 90                	xchg   ax,ax

Disassembly of section .plt.got:

00001200 <__cxa_finalize@plt>:
    1200:	f3 0f 1e fb          	endbr32 
    1204:	ff a3 80 00 00 00    	jmp    DWORD PTR [ebx+0x80]
    120a:	66 0f 1f 44 00 00    	nop    WORD PTR [eax+eax*1+0x0]

Disassembly of section .plt.sec:

00001210 <read@plt>:
    1210:	f3 0f 1e fb          	endbr32 
    1214:	ff a3 0c 00 00 00    	jmp    DWORD PTR [ebx+0xc]
    121a:	66 0f 1f 44 00 00    	nop    WORD PTR [eax+eax*1+0x0]

00001220 <fflush@plt>:
    1220:	f3 0f 1e fb          	endbr32 
    1224:	ff a3 10 00 00 00    	jmp    DWORD PTR [ebx+0x10]
    122a:	66 0f 1f 44 00 00    	nop    WORD PTR [eax+eax*1+0x0]

00001230 <fgets@plt>:
    1230:	f3 0f 1e fb          	endbr32 
    1234:	ff a3 14 00 00 00    	jmp    DWORD PTR [ebx+0x14]
    123a:	66 0f 1f 44 00 00    	nop    WORD PTR [eax+eax*1+0x0]

00001240 <signal@plt>:
    1240:	f3 0f 1e fb          	endbr32 
    1244:	ff a3 18 00 00 00    	jmp    DWORD PTR [ebx+0x18]
    124a:	66 0f 1f 44 00 00    	nop    WORD PTR [eax+eax*1+0x0]

00001250 <sleep@plt>:
    1250:	f3 0f 1e fb          	endbr32 
    1254:	ff a3 1c 00 00 00    	jmp    DWORD PTR [ebx+0x1c]
    125a:	66 0f 1f 44 00 00    	nop    WORD PTR [eax+eax*1+0x0]

00001260 <alarm@plt>:
    1260:	f3 0f 1e fb          	endbr32 
    1264:	ff a3 20 00 00 00    	jmp    DWORD PTR [ebx+0x20]
    126a:	66 0f 1f 44 00 00    	nop    WORD PTR [eax+eax*1+0x0]

00001270 <strcpy@plt>:
    1270:	f3 0f 1e fb          	endbr32 
    1274:	ff a3 24 00 00 00    	jmp    DWORD PTR [ebx+0x24]
    127a:	66 0f 1f 44 00 00    	nop    WORD PTR [eax+eax*1+0x0]

00001280 <gethostname@plt>:
    1280:	f3 0f 1e fb          	endbr32 
    1284:	ff a3 28 00 00 00    	jmp    DWORD PTR [ebx+0x28]
    128a:	66 0f 1f 44 00 00    	nop    WORD PTR [eax+eax*1+0x0]

00001290 <getenv@plt>:
    1290:	f3 0f 1e fb          	endbr32 
    1294:	ff a3 2c 00 00 00    	jmp    DWORD PTR [ebx+0x2c]
    129a:	66 0f 1f 44 00 00    	nop    WORD PTR [eax+eax*1+0x0]

000012a0 <malloc@plt>:
    12a0:	f3 0f 1e fb          	endbr32 
    12a4:	ff a3 30 00 00 00    	jmp    DWORD PTR [ebx+0x30]
    12aa:	66 0f 1f 44 00 00    	nop    WORD PTR [eax+eax*1+0x0]

000012b0 <puts@plt>:
    12b0:	f3 0f 1e fb          	endbr32 
    12b4:	ff a3 34 00 00 00    	jmp    DWORD PTR [ebx+0x34]
    12ba:	66 0f 1f 44 00 00    	nop    WORD PTR [eax+eax*1+0x0]

000012c0 <__memmove_chk@plt>:
    12c0:	f3 0f 1e fb          	endbr32 
    12c4:	ff a3 38 00 00 00    	jmp    DWORD PTR [ebx+0x38]
    12ca:	66 0f 1f 44 00 00    	nop    WORD PTR [eax+eax*1+0x0]

000012d0 <exit@plt>:
    12d0:	f3 0f 1e fb          	endbr32 
    12d4:	ff a3 3c 00 00 00    	jmp    DWORD PTR [ebx+0x3c]
    12da:	66 0f 1f 44 00 00    	nop    WORD PTR [eax+eax*1+0x0]

000012e0 <__libc_start_main@plt>:
    12e0:	f3 0f 1e fb          	endbr32 
    12e4:	ff a3 40 00 00 00    	jmp    DWORD PTR [ebx+0x40]
    12ea:	66 0f 1f 44 00 00    	nop    WORD PTR [eax+eax*1+0x0]

000012f0 <write@plt>:
    12f0:	f3 0f 1e fb          	endbr32 
    12f4:	ff a3 44 00 00 00    	jmp    DWORD PTR [ebx+0x44]
    12fa:	66 0f 1f 44 00 00    	nop    WORD PTR [eax+eax*1+0x0]

00001300 <strcasecmp@plt>:
    1300:	f3 0f 1e fb          	endbr32 
    1304:	ff a3 48 00 00 00    	jmp    DWORD PTR [ebx+0x48]
    130a:	66 0f 1f 44 00 00    	nop    WORD PTR [eax+eax*1+0x0]

00001310 <__isoc99_sscanf@plt>:
    1310:	f3 0f 1e fb          	endbr32 
    1314:	ff a3 4c 00 00 00    	jmp    DWORD PTR [ebx+0x4c]
    131a:	66 0f 1f 44 00 00    	nop    WORD PTR [eax+eax*1+0x0]

00001320 <fopen@plt>:
    1320:	f3 0f 1e fb          	endbr32 
    1324:	ff a3 50 00 00 00    	jmp    DWORD PTR [ebx+0x50]
    132a:	66 0f 1f 44 00 00    	nop    WORD PTR [eax+eax*1+0x0]

00001330 <__errno_location@plt>:
    1330:	f3 0f 1e fb          	endbr32 
    1334:	ff a3 54 00 00 00    	jmp    DWORD PTR [ebx+0x54]
    133a:	66 0f 1f 44 00 00    	nop    WORD PTR [eax+eax*1+0x0]

00001340 <__printf_chk@plt>:
    1340:	f3 0f 1e fb          	endbr32 
    1344:	ff a3 58 00 00 00    	jmp    DWORD PTR [ebx+0x58]
    134a:	66 0f 1f 44 00 00    	nop    WORD PTR [eax+eax*1+0x0]

00001350 <socket@plt>:
    1350:	f3 0f 1e fb          	endbr32 
    1354:	ff a3 5c 00 00 00    	jmp    DWORD PTR [ebx+0x5c]
    135a:	66 0f 1f 44 00 00    	nop    WORD PTR [eax+eax*1+0x0]

00001360 <__fprintf_chk@plt>:
    1360:	f3 0f 1e fb          	endbr32 
    1364:	ff a3 60 00 00 00    	jmp    DWORD PTR [ebx+0x60]
    136a:	66 0f 1f 44 00 00    	nop    WORD PTR [eax+eax*1+0x0]

00001370 <gethostbyname@plt>:
    1370:	f3 0f 1e fb          	endbr32 
    1374:	ff a3 64 00 00 00    	jmp    DWORD PTR [ebx+0x64]
    137a:	66 0f 1f 44 00 00    	nop    WORD PTR [eax+eax*1+0x0]

00001380 <strtol@plt>:
    1380:	f3 0f 1e fb          	endbr32 
    1384:	ff a3 68 00 00 00    	jmp    DWORD PTR [ebx+0x68]
    138a:	66 0f 1f 44 00 00    	nop    WORD PTR [eax+eax*1+0x0]

00001390 <connect@plt>:
    1390:	f3 0f 1e fb          	endbr32 
    1394:	ff a3 6c 00 00 00    	jmp    DWORD PTR [ebx+0x6c]
    139a:	66 0f 1f 44 00 00    	nop    WORD PTR [eax+eax*1+0x0]

000013a0 <close@plt>:
    13a0:	f3 0f 1e fb          	endbr32 
    13a4:	ff a3 70 00 00 00    	jmp    DWORD PTR [ebx+0x70]
    13aa:	66 0f 1f 44 00 00    	nop    WORD PTR [eax+eax*1+0x0]

000013b0 <__ctype_b_loc@plt>:
    13b0:	f3 0f 1e fb          	endbr32 
    13b4:	ff a3 74 00 00 00    	jmp    DWORD PTR [ebx+0x74]
    13ba:	66 0f 1f 44 00 00    	nop    WORD PTR [eax+eax*1+0x0]

000013c0 <__sprintf_chk@plt>:
    13c0:	f3 0f 1e fb          	endbr32 
    13c4:	ff a3 78 00 00 00    	jmp    DWORD PTR [ebx+0x78]
    13ca:	66 0f 1f 44 00 00    	nop    WORD PTR [eax+eax*1+0x0]

Disassembly of section .text:

000013d0 <_start>:
    13d0:	f3 0f 1e fb          	endbr32 
    13d4:	31 ed                	xor    ebp,ebp
    13d6:	5e                   	pop    esi
    13d7:	89 e1                	mov    ecx,esp
    13d9:	83 e4 f0             	and    esp,0xfffffff0
    13dc:	50                   	push   eax
    13dd:	54                   	push   esp
    13de:	52                   	push   edx
    13df:	e8 22 00 00 00       	call   1406 <_start+0x36>
    13e4:	81 c3 8c 4b 00 00    	add    ebx,0x4b8c
    13ea:	8d 83 50 cc ff ff    	lea    eax,[ebx-0x33b0]
    13f0:	50                   	push   eax
    13f1:	8d 83 e0 cb ff ff    	lea    eax,[ebx-0x3420]
    13f7:	50                   	push   eax
    13f8:	51                   	push   ecx
    13f9:	56                   	push   esi
    13fa:	ff b3 88 00 00 00    	push   DWORD PTR [ebx+0x88]
    1400:	e8 db fe ff ff       	call   12e0 <__libc_start_main@plt>
    1405:	f4                   	hlt    
    1406:	8b 1c 24             	mov    ebx,DWORD PTR [esp]
    1409:	c3                   	ret    
    140a:	66 90                	xchg   ax,ax
    140c:	66 90                	xchg   ax,ax
    140e:	66 90                	xchg   ax,ax

00001410 <__x86.get_pc_thunk.bx>:
    1410:	8b 1c 24             	mov    ebx,DWORD PTR [esp]
    1413:	c3                   	ret    
    1414:	66 90                	xchg   ax,ax
    1416:	66 90                	xchg   ax,ax
    1418:	66 90                	xchg   ax,ax
    141a:	66 90                	xchg   ax,ax
    141c:	66 90                	xchg   ax,ax
    141e:	66 90                	xchg   ax,ax

00001420 <deregister_tm_clones>:
    1420:	e8 e4 00 00 00       	call   1509 <__x86.get_pc_thunk.dx>
    1425:	81 c2 4b 4b 00 00    	add    edx,0x4b4b
    142b:	8d 8a d0 07 00 00    	lea    ecx,[edx+0x7d0]
    1431:	8d 82 d0 07 00 00    	lea    eax,[edx+0x7d0]
    1437:	39 c8                	cmp    eax,ecx
    1439:	74 1d                	je     1458 <deregister_tm_clones+0x38>
    143b:	8b 82 7c 00 00 00    	mov    eax,DWORD PTR [edx+0x7c]
    1441:	85 c0                	test   eax,eax
    1443:	74 13                	je     1458 <deregister_tm_clones+0x38>
    1445:	55                   	push   ebp
    1446:	89 e5                	mov    ebp,esp
    1448:	83 ec 14             	sub    esp,0x14
    144b:	51                   	push   ecx
    144c:	ff d0                	call   eax
    144e:	83 c4 10             	add    esp,0x10
    1451:	c9                   	leave  
    1452:	c3                   	ret    
    1453:	8d 74 26 00          	lea    esi,[esi+eiz*1+0x0]
    1457:	90                   	nop
    1458:	c3                   	ret    
    1459:	8d b4 26 00 00 00 00 	lea    esi,[esi+eiz*1+0x0]

00001460 <register_tm_clones>:
    1460:	e8 a4 00 00 00       	call   1509 <__x86.get_pc_thunk.dx>
    1465:	81 c2 0b 4b 00 00    	add    edx,0x4b0b
    146b:	55                   	push   ebp
    146c:	89 e5                	mov    ebp,esp
    146e:	53                   	push   ebx
    146f:	8d 8a d0 07 00 00    	lea    ecx,[edx+0x7d0]
    1475:	8d 82 d0 07 00 00    	lea    eax,[edx+0x7d0]
    147b:	83 ec 04             	sub    esp,0x4
    147e:	29 c8                	sub    eax,ecx
    1480:	89 c3                	mov    ebx,eax
    1482:	c1 e8 1f             	shr    eax,0x1f
    1485:	c1 fb 02             	sar    ebx,0x2
    1488:	01 d8                	add    eax,ebx
    148a:	d1 f8                	sar    eax,1
    148c:	74 14                	je     14a2 <register_tm_clones+0x42>
    148e:	8b 92 8c 00 00 00    	mov    edx,DWORD PTR [edx+0x8c]
    1494:	85 d2                	test   edx,edx
    1496:	74 0a                	je     14a2 <register_tm_clones+0x42>
    1498:	83 ec 08             	sub    esp,0x8
    149b:	50                   	push   eax
    149c:	51                   	push   ecx
    149d:	ff d2                	call   edx
    149f:	83 c4 10             	add    esp,0x10
    14a2:	8b 5d fc             	mov    ebx,DWORD PTR [ebp-0x4]
    14a5:	c9                   	leave  
    14a6:	c3                   	ret    
    14a7:	8d b4 26 00 00 00 00 	lea    esi,[esi+eiz*1+0x0]
    14ae:	66 90                	xchg   ax,ax

000014b0 <__do_global_dtors_aux>:
    14b0:	f3 0f 1e fb          	endbr32 
    14b4:	55                   	push   ebp
    14b5:	89 e5                	mov    ebp,esp
    14b7:	53                   	push   ebx
    14b8:	e8 53 ff ff ff       	call   1410 <__x86.get_pc_thunk.bx>
    14bd:	81 c3 b3 4a 00 00    	add    ebx,0x4ab3
    14c3:	83 ec 04             	sub    esp,0x4
    14c6:	80 bb f8 07 00 00 00 	cmp    BYTE PTR [ebx+0x7f8],0x0
    14cd:	75 27                	jne    14f6 <__do_global_dtors_aux+0x46>
    14cf:	8b 83 80 00 00 00    	mov    eax,DWORD PTR [ebx+0x80]
    14d5:	85 c0                	test   eax,eax
    14d7:	74 11                	je     14ea <__do_global_dtors_aux+0x3a>
    14d9:	83 ec 0c             	sub    esp,0xc
    14dc:	ff b3 94 00 00 00    	push   DWORD PTR [ebx+0x94]
    14e2:	e8 19 fd ff ff       	call   1200 <__cxa_finalize@plt>
    14e7:	83 c4 10             	add    esp,0x10
    14ea:	e8 31 ff ff ff       	call   1420 <deregister_tm_clones>
    14ef:	c6 83 f8 07 00 00 01 	mov    BYTE PTR [ebx+0x7f8],0x1
    14f6:	8b 5d fc             	mov    ebx,DWORD PTR [ebp-0x4]
    14f9:	c9                   	leave  
    14fa:	c3                   	ret    
    14fb:	8d 74 26 00          	lea    esi,[esi+eiz*1+0x0]
    14ff:	90                   	nop

00001500 <frame_dummy>:
    1500:	f3 0f 1e fb          	endbr32 
    1504:	e9 57 ff ff ff       	jmp    1460 <register_tm_clones>

00001509 <__x86.get_pc_thunk.dx>:
    1509:	8b 14 24             	mov    edx,DWORD PTR [esp]
    150c:	c3                   	ret    

0000150d <main>:
    150d:	f3 0f 1e fb          	endbr32 
    1511:	8d 4c 24 04          	lea    ecx,[esp+0x4]
    1515:	83 e4 f0             	and    esp,0xfffffff0
    1518:	ff 71 fc             	push   DWORD PTR [ecx-0x4]
    151b:	55                   	push   ebp
    151c:	89 e5                	mov    ebp,esp
    151e:	53                   	push   ebx
    151f:	51                   	push   ecx
    1520:	8b 01                	mov    eax,DWORD PTR [ecx]
    1522:	8b 59 04             	mov    ebx,DWORD PTR [ecx+0x4]
    1525:	83 f8 01             	cmp    eax,0x1
    1528:	0f 84 5b 01 00 00    	je     1689 <main+0x17c>
    152e:	83 f8 02             	cmp    eax,0x2
    1531:	0f 85 7e 01 00 00    	jne    16b5 <main+0x1a8>
    1537:	83 ec 08             	sub    esp,0x8
    153a:	68 08 30 00 00       	push   0x3008
    153f:	ff 73 04             	push   DWORD PTR [ebx+0x4]
    1542:	e8 fc ff ff ff       	call   1543 <main+0x36>
    1547:	a3 70 67 00 00       	mov    ds:0x6770,eax
    154c:	83 c4 10             	add    esp,0x10
    154f:	85 c0                	test   eax,eax
    1551:	0f 84 41 01 00 00    	je     1698 <main+0x18b>
    1557:	e8 f7 06 00 00       	call   1c53 <initialize_bomb>
    155c:	83 ec 0c             	sub    esp,0xc
    155f:	68 98 30 00 00       	push   0x3098
    1564:	e8 fc ff ff ff       	call   1565 <main+0x58>
    1569:	c7 04 24 d4 30 00 00 	mov    DWORD PTR [esp],0x30d4
    1570:	e8 fc ff ff ff       	call   1571 <main+0x64>
    1575:	e8 5f 09 00 00       	call   1ed9 <read_line>
    157a:	89 04 24             	mov    DWORD PTR [esp],eax
    157d:	e8 50 01 00 00       	call   16d2 <phase_1>
    1582:	e8 53 0a 00 00       	call   1fda <phase_defused>
    1587:	c7 04 24 00 31 00 00 	mov    DWORD PTR [esp],0x3100
    158e:	e8 fc ff ff ff       	call   158f <main+0x82>
    1593:	e8 41 09 00 00       	call   1ed9 <read_line>
    1598:	89 04 24             	mov    DWORD PTR [esp],eax
    159b:	e8 7c 01 00 00       	call   171c <phase_2>
    15a0:	e8 35 0a 00 00       	call   1fda <phase_defused>
    15a5:	c7 04 24 41 30 00 00 	mov    DWORD PTR [esp],0x3041
    15ac:	e8 fc ff ff ff       	call   15ad <main+0xa0>
    15b1:	e8 23 09 00 00       	call   1ed9 <read_line>
    15b6:	89 04 24             	mov    DWORD PTR [esp],eax
    15b9:	e8 85 01 00 00       	call   1743 <phase_3>
    15be:	e8 17 0a 00 00       	call   1fda <phase_defused>
    15c3:	c7 04 24 5f 30 00 00 	mov    DWORD PTR [esp],0x305f
    15ca:	e8 fc ff ff ff       	call   15cb <main+0xbe>
    15cf:	e8 05 09 00 00       	call   1ed9 <read_line>
    15d4:	89 04 24             	mov    DWORD PTR [esp],eax
    15d7:	e8 11 02 00 00       	call   17ed <phase_4>
    15dc:	e8 f9 09 00 00       	call   1fda <phase_defused>
    15e1:	c7 04 24 2c 31 00 00 	mov    DWORD PTR [esp],0x312c
    15e8:	e8 fc ff ff ff       	call   15e9 <main+0xdc>
    15ed:	e8 e7 08 00 00       	call   1ed9 <read_line>
    15f2:	89 04 24             	mov    DWORD PTR [esp],eax
    15f5:	e8 54 02 00 00       	call   184e <phase_5>
    15fa:	e8 db 09 00 00       	call   1fda <phase_defused>
    15ff:	c7 04 24 70 30 00 00 	mov    DWORD PTR [esp],0x3070
    1606:	e8 fc ff ff ff       	call   1607 <main+0xfa>
    160b:	e8 c9 08 00 00       	call   1ed9 <read_line>
    1610:	89 04 24             	mov    DWORD PTR [esp],eax
    1613:	e8 e2 02 00 00       	call   18fa <phase_6>
    1618:	e8 bd 09 00 00       	call   1fda <phase_defused>
    161d:	c7 04 24 50 31 00 00 	mov    DWORD PTR [esp],0x3150
    1624:	e8 fc ff ff ff       	call   1625 <main+0x118>
    1629:	e8 ab 08 00 00       	call   1ed9 <read_line>
    162e:	89 04 24             	mov    DWORD PTR [esp],eax
    1631:	e8 1e 03 00 00       	call   1954 <phase_7>
    1636:	e8 9f 09 00 00       	call   1fda <phase_defused>
    163b:	c7 04 24 70 31 00 00 	mov    DWORD PTR [esp],0x3170
    1642:	e8 fc ff ff ff       	call   1643 <main+0x136>
    1647:	e8 8d 08 00 00       	call   1ed9 <read_line>
    164c:	89 04 24             	mov    DWORD PTR [esp],eax
    164f:	e8 50 03 00 00       	call   19a4 <phase_8>
    1654:	e8 81 09 00 00       	call   1fda <phase_defused>
    1659:	c7 04 24 8e 30 00 00 	mov    DWORD PTR [esp],0x308e
    1660:	e8 fc ff ff ff       	call   1661 <main+0x154>
    1665:	e8 6f 08 00 00       	call   1ed9 <read_line>
    166a:	89 04 24             	mov    DWORD PTR [esp],eax
    166d:	e8 92 04 00 00       	call   1b04 <phase_9>
    1672:	e8 63 09 00 00       	call   1fda <phase_defused>
    1677:	83 c4 10             	add    esp,0x10
    167a:	b8 00 00 00 00       	mov    eax,0x0
    167f:	8d 65 f8             	lea    esp,[ebp-0x8]
    1682:	59                   	pop    ecx
    1683:	5b                   	pop    ebx
    1684:	5d                   	pop    ebp
    1685:	8d 61 fc             	lea    esp,[ecx-0x4]
    1688:	c3                   	ret    
    1689:	a1 00 00 00 00       	mov    eax,ds:0x0
    168e:	a3 70 67 00 00       	mov    ds:0x6770,eax
    1693:	e9 bf fe ff ff       	jmp    1557 <main+0x4a>
    1698:	ff 73 04             	push   DWORD PTR [ebx+0x4]
    169b:	ff 33                	push   DWORD PTR [ebx]
    169d:	68 0a 30 00 00       	push   0x300a
    16a2:	6a 01                	push   0x1
    16a4:	e8 fc ff ff ff       	call   16a5 <main+0x198>
    16a9:	c7 04 24 08 00 00 00 	mov    DWORD PTR [esp],0x8
    16b0:	e8 fc ff ff ff       	call   16b1 <main+0x1a4>
    16b5:	83 ec 04             	sub    esp,0x4
    16b8:	ff 33                	push   DWORD PTR [ebx]
    16ba:	68 27 30 00 00       	push   0x3027
    16bf:	6a 01                	push   0x1
    16c1:	e8 fc ff ff ff       	call   16c2 <main+0x1b5>
    16c6:	c7 04 24 08 00 00 00 	mov    DWORD PTR [esp],0x8
    16cd:	e8 fc ff ff ff       	call   16ce <main+0x1c1>

000016d2 <phase_1>:
    16d2:	f3 0f 1e fb          	endbr32 
    16d6:	83 ec 20             	sub    esp,0x20
    16d9:	c7 44 24 10 00 00 00 	mov    DWORD PTR [esp+0x10],0x0
    16e0:	00 
    16e1:	8d 44 24 10          	lea    eax,[esp+0x10]
    16e5:	50                   	push   eax
    16e6:	68 60 34 00 00       	push   0x3460
    16eb:	ff 74 24 2c          	push   DWORD PTR [esp+0x2c]
    16ef:	e8 fc ff ff ff       	call   16f0 <phase_1+0x1e>
    16f4:	83 c4 10             	add    esp,0x10
    16f7:	83 f8 01             	cmp    eax,0x1
    16fa:	75 12                	jne    170e <phase_1+0x3c>
    16fc:	8b 44 24 0c          	mov    eax,DWORD PTR [esp+0xc]
    1700:	c1 e0 02             	shl    eax,0x2
    1703:	3d 28 03 00 00       	cmp    eax,0x328
    1708:	75 0b                	jne    1715 <phase_1+0x43>
    170a:	83 c4 1c             	add    esp,0x1c
    170d:	c3                   	ret    
    170e:	e8 44 07 00 00       	call   1e57 <explode_bomb>
    1713:	eb e7                	jmp    16fc <phase_1+0x2a>
    1715:	e8 3d 07 00 00       	call   1e57 <explode_bomb>
    171a:	eb ee                	jmp    170a <phase_1+0x38>

0000171c <phase_2>:
    171c:	f3 0f 1e fb          	endbr32 
    1720:	83 ec 14             	sub    esp,0x14
    1723:	68 90 31 00 00       	push   0x3190
    1728:	ff 74 24 1c          	push   DWORD PTR [esp+0x1c]
    172c:	e8 c6 04 00 00       	call   1bf7 <strings_not_equal>
    1731:	83 c4 10             	add    esp,0x10
    1734:	85 c0                	test   eax,eax
    1736:	75 04                	jne    173c <phase_2+0x20>
    1738:	83 c4 0c             	add    esp,0xc
    173b:	c3                   	ret    
    173c:	e8 16 07 00 00       	call   1e57 <explode_bomb>
    1741:	eb f5                	jmp    1738 <phase_2+0x1c>

00001743 <phase_3>:
    1743:	f3 0f 1e fb          	endbr32 
    1747:	83 ec 18             	sub    esp,0x18
    174a:	68 d0 31 00 00       	push   0x31d0
    174f:	e8 81 04 00 00       	call   1bd5 <string_length>
    1754:	83 c0 01             	add    eax,0x1
    1757:	89 04 24             	mov    DWORD PTR [esp],eax
    175a:	e8 fc ff ff ff       	call   175b <phase_3+0x18>
    175f:	c7 00 54 68 65 20    	mov    DWORD PTR [eax],0x20656854
    1765:	c7 40 04 72 65 61 6c 	mov    DWORD PTR [eax+0x4],0x6c616572
    176c:	c7 40 08 20 66 72 69 	mov    DWORD PTR [eax+0x8],0x69726620
    1773:	c7 40 0c 65 6e 64 73 	mov    DWORD PTR [eax+0xc],0x73646e65
    177a:	c7 40 10 20 77 65 72 	mov    DWORD PTR [eax+0x10],0x72657720
    1781:	c7 40 14 65 20 74 68 	mov    DWORD PTR [eax+0x14],0x68742065
    1788:	c7 40 18 65 20 74 72 	mov    DWORD PTR [eax+0x18],0x72742065
    178f:	c7 40 1c 65 61 73 75 	mov    DWORD PTR [eax+0x1c],0x75736165
    1796:	c7 40 20 72 65 20 77 	mov    DWORD PTR [eax+0x20],0x77206572
    179d:	c7 40 24 65 20 66 6f 	mov    DWORD PTR [eax+0x24],0x6f662065
    17a4:	c7 40 28 75 6e 64 20 	mov    DWORD PTR [eax+0x28],0x20646e75
    17ab:	c7 40 2c 61 6c 6f 6e 	mov    DWORD PTR [eax+0x2c],0x6e6f6c61
    17b2:	c7 40 30 67 20 74 68 	mov    DWORD PTR [eax+0x30],0x68742067
    17b9:	c7 40 34 65 20 77 61 	mov    DWORD PTR [eax+0x34],0x61772065
    17c0:	66 c7 40 38 79 2e    	mov    WORD PTR [eax+0x38],0x2e79
    17c6:	c6 40 3a 00          	mov    BYTE PTR [eax+0x3a],0x0
    17ca:	c6 40 30 6e          	mov    BYTE PTR [eax+0x30],0x6e
    17ce:	83 c4 08             	add    esp,0x8
    17d1:	50                   	push   eax
    17d2:	ff 74 24 1c          	push   DWORD PTR [esp+0x1c]
    17d6:	e8 1c 04 00 00       	call   1bf7 <strings_not_equal>
    17db:	83 c4 10             	add    esp,0x10
    17de:	85 c0                	test   eax,eax
    17e0:	75 04                	jne    17e6 <phase_3+0xa3>
    17e2:	83 c4 0c             	add    esp,0xc
    17e5:	c3                   	ret    
    17e6:	e8 6c 06 00 00       	call   1e57 <explode_bomb>
    17eb:	eb f5                	jmp    17e2 <phase_3+0x9f>

000017ed <phase_4>:
    17ed:	f3 0f 1e fb          	endbr32 
    17f1:	56                   	push   esi
    17f2:	53                   	push   ebx
    17f3:	83 ec 10             	sub    esp,0x10
    17f6:	8b 74 24 1c          	mov    esi,DWORD PTR [esp+0x1c]
    17fa:	56                   	push   esi
    17fb:	e8 d5 03 00 00       	call   1bd5 <string_length>
    1800:	89 c3                	mov    ebx,eax
    1802:	8d 40 01             	lea    eax,[eax+0x1]
    1805:	89 04 24             	mov    DWORD PTR [esp],eax
    1808:	e8 fc ff ff ff       	call   1809 <phase_4+0x1c>
    180d:	8d 14 18             	lea    edx,[eax+ebx*1]
    1810:	c6 02 00             	mov    BYTE PTR [edx],0x0
    1813:	0f b6 0e             	movzx  ecx,BYTE PTR [esi]
    1816:	83 c4 10             	add    esp,0x10
    1819:	84 c9                	test   cl,cl
    181b:	74 0f                	je     182c <phase_4+0x3f>
    181d:	83 ea 01             	sub    edx,0x1
    1820:	88 0a                	mov    BYTE PTR [edx],cl
    1822:	83 c6 01             	add    esi,0x1
    1825:	0f b6 0e             	movzx  ecx,BYTE PTR [esi]
    1828:	84 c9                	test   cl,cl
    182a:	75 f1                	jne    181d <phase_4+0x30>
    182c:	83 ec 08             	sub    esp,0x8
    182f:	50                   	push   eax
    1830:	68 0c 32 00 00       	push   0x320c
    1835:	e8 bd 03 00 00       	call   1bf7 <strings_not_equal>
    183a:	83 c4 10             	add    esp,0x10
    183d:	85 c0                	test   eax,eax
    183f:	75 06                	jne    1847 <phase_4+0x5a>
    1841:	83 c4 04             	add    esp,0x4
    1844:	5b                   	pop    ebx
    1845:	5e                   	pop    esi
    1846:	c3                   	ret    
    1847:	e8 0b 06 00 00       	call   1e57 <explode_bomb>
    184c:	eb f3                	jmp    1841 <phase_4+0x54>

0000184e <phase_5>:
    184e:	f3 0f 1e fb          	endbr32 
    1852:	56                   	push   esi
    1853:	53                   	push   ebx
    1854:	83 ec 18             	sub    esp,0x18
    1857:	8d 44 24 10          	lea    eax,[esp+0x10]
    185b:	50                   	push   eax
    185c:	68 60 34 00 00       	push   0x3460
    1861:	ff 74 24 2c          	push   DWORD PTR [esp+0x2c]
    1865:	e8 fc ff ff ff       	call   1866 <phase_5+0x18>
    186a:	83 c4 10             	add    esp,0x10
    186d:	83 f8 01             	cmp    eax,0x1
    1870:	75 19                	jne    188b <phase_5+0x3d>
    1872:	8b 74 24 0c          	mov    esi,DWORD PTR [esp+0xc]
    1876:	85 f6                	test   esi,esi
    1878:	7e 34                	jle    18ae <phase_5+0x60>
    187a:	b8 00 00 00 00       	mov    eax,0x0
    187f:	b9 00 00 00 00       	mov    ecx,0x0
    1884:	ba 01 00 00 00       	mov    edx,0x1
    1889:	eb 09                	jmp    1894 <phase_5+0x46>
    188b:	e8 c7 05 00 00       	call   1e57 <explode_bomb>
    1890:	eb e0                	jmp    1872 <phase_5+0x24>
    1892:	89 da                	mov    edx,ebx
    1894:	8d 1c 0a             	lea    ebx,[edx+ecx*1]
    1897:	83 c0 01             	add    eax,0x1
    189a:	89 d1                	mov    ecx,edx
    189c:	39 f0                	cmp    eax,esi
    189e:	75 f2                	jne    1892 <phase_5+0x44>
    18a0:	81 fb 79 01 00 00    	cmp    ebx,0x179
    18a6:	75 06                	jne    18ae <phase_5+0x60>
    18a8:	83 c4 14             	add    esp,0x14
    18ab:	5b                   	pop    ebx
    18ac:	5e                   	pop    esi
    18ad:	c3                   	ret    
    18ae:	e8 a4 05 00 00       	call   1e57 <explode_bomb>
    18b3:	eb f3                	jmp    18a8 <phase_5+0x5a>

000018b5 <func6>:
    18b5:	f3 0f 1e fb          	endbr32 
    18b9:	57                   	push   edi
    18ba:	56                   	push   esi
    18bb:	53                   	push   ebx
    18bc:	8b 5c 24 10          	mov    ebx,DWORD PTR [esp+0x10]
    18c0:	8b 7c 24 14          	mov    edi,DWORD PTR [esp+0x14]
    18c4:	b8 00 00 00 00       	mov    eax,0x0
    18c9:	85 db                	test   ebx,ebx
    18cb:	7e 29                	jle    18f6 <func6+0x41>
    18cd:	89 f8                	mov    eax,edi
    18cf:	83 fb 01             	cmp    ebx,0x1
    18d2:	74 22                	je     18f6 <func6+0x41>
    18d4:	83 ec 08             	sub    esp,0x8
    18d7:	57                   	push   edi
    18d8:	8d 43 ff             	lea    eax,[ebx-0x1]
    18db:	50                   	push   eax
    18dc:	e8 d4 ff ff ff       	call   18b5 <func6>
    18e1:	83 c4 08             	add    esp,0x8
    18e4:	8d 34 38             	lea    esi,[eax+edi*1]
    18e7:	57                   	push   edi
    18e8:	83 eb 02             	sub    ebx,0x2
    18eb:	53                   	push   ebx
    18ec:	e8 c4 ff ff ff       	call   18b5 <func6>
    18f1:	83 c4 10             	add    esp,0x10
    18f4:	01 f0                	add    eax,esi
    18f6:	5b                   	pop    ebx
    18f7:	5e                   	pop    esi
    18f8:	5f                   	pop    edi
    18f9:	c3                   	ret    

000018fa <phase_6>:
    18fa:	f3 0f 1e fb          	endbr32 
    18fe:	83 ec 1c             	sub    esp,0x1c
    1901:	8d 44 24 0c          	lea    eax,[esp+0xc]
    1905:	50                   	push   eax
    1906:	8d 44 24 0c          	lea    eax,[esp+0xc]
    190a:	50                   	push   eax
    190b:	68 5d 34 00 00       	push   0x345d
    1910:	ff 74 24 2c          	push   DWORD PTR [esp+0x2c]
    1914:	e8 fc ff ff ff       	call   1915 <phase_6+0x1b>
    1919:	83 c4 10             	add    esp,0x10
    191c:	83 f8 02             	cmp    eax,0x2
    191f:	75 0c                	jne    192d <phase_6+0x33>
    1921:	8b 44 24 0c          	mov    eax,DWORD PTR [esp+0xc]
    1925:	83 e8 02             	sub    eax,0x2
    1928:	83 f8 02             	cmp    eax,0x2
    192b:	76 05                	jbe    1932 <phase_6+0x38>
    192d:	e8 25 05 00 00       	call   1e57 <explode_bomb>
    1932:	83 ec 08             	sub    esp,0x8
    1935:	ff 74 24 14          	push   DWORD PTR [esp+0x14]
    1939:	6a 06                	push   0x6
    193b:	e8 75 ff ff ff       	call   18b5 <func6>
    1940:	83 c4 10             	add    esp,0x10
    1943:	39 44 24 08          	cmp    DWORD PTR [esp+0x8],eax
    1947:	75 04                	jne    194d <phase_6+0x53>
    1949:	83 c4 1c             	add    esp,0x1c
    194c:	c3                   	ret    
    194d:	e8 05 05 00 00       	call   1e57 <explode_bomb>
    1952:	eb f5                	jmp    1949 <phase_6+0x4f>

00001954 <phase_7>:
    1954:	f3 0f 1e fb          	endbr32 
    1958:	53                   	push   ebx
    1959:	83 ec 14             	sub    esp,0x14
    195c:	8b 5c 24 1c          	mov    ebx,DWORD PTR [esp+0x1c]
    1960:	53                   	push   ebx
    1961:	e8 6f 02 00 00       	call   1bd5 <string_length>
    1966:	83 c4 10             	add    esp,0x10
    1969:	83 f8 06             	cmp    eax,0x6
    196c:	75 28                	jne    1996 <phase_7+0x42>
    196e:	89 d8                	mov    eax,ebx
    1970:	83 c3 06             	add    ebx,0x6
    1973:	b9 00 00 00 00       	mov    ecx,0x0
    1978:	0f b6 10             	movzx  edx,BYTE PTR [eax]
    197b:	83 e2 0f             	and    edx,0xf
    197e:	03 0c 95 60 32 00 00 	add    ecx,DWORD PTR [edx*4+0x3260]
    1985:	83 c0 01             	add    eax,0x1
    1988:	39 d8                	cmp    eax,ebx
    198a:	75 ec                	jne    1978 <phase_7+0x24>
    198c:	83 f9 22             	cmp    ecx,0x22
    198f:	75 0c                	jne    199d <phase_7+0x49>
    1991:	83 c4 08             	add    esp,0x8
    1994:	5b                   	pop    ebx
    1995:	c3                   	ret    
    1996:	e8 bc 04 00 00       	call   1e57 <explode_bomb>
    199b:	eb d1                	jmp    196e <phase_7+0x1a>
    199d:	e8 b5 04 00 00       	call   1e57 <explode_bomb>
    19a2:	eb ed                	jmp    1991 <phase_7+0x3d>

000019a4 <phase_8>:
    19a4:	f3 0f 1e fb          	endbr32 
    19a8:	55                   	push   ebp
    19a9:	57                   	push   edi
    19aa:	56                   	push   esi
    19ab:	53                   	push   ebx
    19ac:	83 ec 54             	sub    esp,0x54
    19af:	8d 44 24 30          	lea    eax,[esp+0x30]
    19b3:	50                   	push   eax
    19b4:	ff 74 24 6c          	push   DWORD PTR [esp+0x6c]
    19b8:	e8 dd 04 00 00       	call   1e9a <read_six_numbers>
    19bd:	8d 6c 24 3c          	lea    ebp,[esp+0x3c]
    19c1:	83 c4 10             	add    esp,0x10
    19c4:	c7 44 24 0c 00 00 00 	mov    DWORD PTR [esp+0xc],0x0
    19cb:	00 
    19cc:	8d 7c 24 40          	lea    edi,[esp+0x40]
    19d0:	eb 1f                	jmp    19f1 <phase_8+0x4d>
    19d2:	e8 80 04 00 00       	call   1e57 <explode_bomb>
    19d7:	eb 25                	jmp    19fe <phase_8+0x5a>
    19d9:	e8 79 04 00 00       	call   1e57 <explode_bomb>
    19de:	83 c3 04             	add    ebx,0x4
    19e1:	39 df                	cmp    edi,ebx
    19e3:	74 09                	je     19ee <phase_8+0x4a>
    19e5:	8b 03                	mov    eax,DWORD PTR [ebx]
    19e7:	39 46 fc             	cmp    DWORD PTR [esi-0x4],eax
    19ea:	75 f2                	jne    19de <phase_8+0x3a>
    19ec:	eb eb                	jmp    19d9 <phase_8+0x35>
    19ee:	83 c5 04             	add    ebp,0x4
    19f1:	89 ee                	mov    esi,ebp
    19f3:	8b 45 fc             	mov    eax,DWORD PTR [ebp-0x4]
    19f6:	83 e8 01             	sub    eax,0x1
    19f9:	83 f8 05             	cmp    eax,0x5
    19fc:	77 d4                	ja     19d2 <phase_8+0x2e>
    19fe:	83 44 24 0c 01       	add    DWORD PTR [esp+0xc],0x1
    1a03:	8b 44 24 0c          	mov    eax,DWORD PTR [esp+0xc]
    1a07:	83 f8 05             	cmp    eax,0x5
    1a0a:	7f 04                	jg     1a10 <phase_8+0x6c>
    1a0c:	89 eb                	mov    ebx,ebp
    1a0e:	eb d5                	jmp    19e5 <phase_8+0x41>
    1a10:	8d 44 24 28          	lea    eax,[esp+0x28]
    1a14:	8d 5c 24 40          	lea    ebx,[esp+0x40]
    1a18:	b9 07 00 00 00       	mov    ecx,0x7
    1a1d:	89 ca                	mov    edx,ecx
    1a1f:	2b 10                	sub    edx,DWORD PTR [eax]
    1a21:	89 10                	mov    DWORD PTR [eax],edx
    1a23:	83 c0 04             	add    eax,0x4
    1a26:	39 c3                	cmp    ebx,eax
    1a28:	75 f3                	jne    1a1d <phase_8+0x79>
    1a2a:	bb 00 00 00 00       	mov    ebx,0x0
    1a2f:	89 de                	mov    esi,ebx
    1a31:	8b 4c 9c 28          	mov    ecx,DWORD PTR [esp+ebx*4+0x28]
    1a35:	b8 01 00 00 00       	mov    eax,0x1
    1a3a:	ba d4 60 00 00       	mov    edx,0x60d4
    1a3f:	83 f9 01             	cmp    ecx,0x1
    1a42:	7e 0a                	jle    1a4e <phase_8+0xaa>
    1a44:	8b 52 08             	mov    edx,DWORD PTR [edx+0x8]
    1a47:	83 c0 01             	add    eax,0x1
    1a4a:	39 c8                	cmp    eax,ecx
    1a4c:	75 f6                	jne    1a44 <phase_8+0xa0>
    1a4e:	89 54 b4 10          	mov    DWORD PTR [esp+esi*4+0x10],edx
    1a52:	83 c3 01             	add    ebx,0x1
    1a55:	83 fb 06             	cmp    ebx,0x6
    1a58:	75 d5                	jne    1a2f <phase_8+0x8b>
    1a5a:	8b 5c 24 10          	mov    ebx,DWORD PTR [esp+0x10]
    1a5e:	8b 44 24 14          	mov    eax,DWORD PTR [esp+0x14]
    1a62:	89 43 08             	mov    DWORD PTR [ebx+0x8],eax
    1a65:	8b 54 24 18          	mov    edx,DWORD PTR [esp+0x18]
    1a69:	89 50 08             	mov    DWORD PTR [eax+0x8],edx
    1a6c:	8b 44 24 1c          	mov    eax,DWORD PTR [esp+0x1c]
    1a70:	89 42 08             	mov    DWORD PTR [edx+0x8],eax
    1a73:	8b 54 24 20          	mov    edx,DWORD PTR [esp+0x20]
    1a77:	89 50 08             	mov    DWORD PTR [eax+0x8],edx
    1a7a:	8b 44 24 24          	mov    eax,DWORD PTR [esp+0x24]
    1a7e:	89 42 08             	mov    DWORD PTR [edx+0x8],eax
    1a81:	c7 40 08 00 00 00 00 	mov    DWORD PTR [eax+0x8],0x0
    1a88:	be 05 00 00 00       	mov    esi,0x5
    1a8d:	eb 08                	jmp    1a97 <phase_8+0xf3>
    1a8f:	8b 5b 08             	mov    ebx,DWORD PTR [ebx+0x8]
    1a92:	83 ee 01             	sub    esi,0x1
    1a95:	74 10                	je     1aa7 <phase_8+0x103>
    1a97:	8b 43 08             	mov    eax,DWORD PTR [ebx+0x8]
    1a9a:	8b 00                	mov    eax,DWORD PTR [eax]
    1a9c:	39 03                	cmp    DWORD PTR [ebx],eax
    1a9e:	7d ef                	jge    1a8f <phase_8+0xeb>
    1aa0:	e8 b2 03 00 00       	call   1e57 <explode_bomb>
    1aa5:	eb e8                	jmp    1a8f <phase_8+0xeb>
    1aa7:	83 c4 4c             	add    esp,0x4c
    1aaa:	5b                   	pop    ebx
    1aab:	5e                   	pop    esi
    1aac:	5f                   	pop    edi
    1aad:	5d                   	pop    ebp
    1aae:	c3                   	ret    

00001aaf <fun9>:
    1aaf:	f3 0f 1e fb          	endbr32 
    1ab3:	53                   	push   ebx
    1ab4:	83 ec 08             	sub    esp,0x8
    1ab7:	8b 54 24 10          	mov    edx,DWORD PTR [esp+0x10]
    1abb:	8b 4c 24 14          	mov    ecx,DWORD PTR [esp+0x14]
    1abf:	85 d2                	test   edx,edx
    1ac1:	74 3a                	je     1afd <fun9+0x4e>
    1ac3:	8b 1a                	mov    ebx,DWORD PTR [edx]
    1ac5:	39 cb                	cmp    ebx,ecx
    1ac7:	7f 0c                	jg     1ad5 <fun9+0x26>
    1ac9:	b8 00 00 00 00       	mov    eax,0x0
    1ace:	75 18                	jne    1ae8 <fun9+0x39>
    1ad0:	83 c4 08             	add    esp,0x8
    1ad3:	5b                   	pop    ebx
    1ad4:	c3                   	ret    
    1ad5:	83 ec 08             	sub    esp,0x8
    1ad8:	51                   	push   ecx
    1ad9:	ff 72 04             	push   DWORD PTR [edx+0x4]
    1adc:	e8 ce ff ff ff       	call   1aaf <fun9>
    1ae1:	83 c4 10             	add    esp,0x10
    1ae4:	01 c0                	add    eax,eax
    1ae6:	eb e8                	jmp    1ad0 <fun9+0x21>
    1ae8:	83 ec 08             	sub    esp,0x8
    1aeb:	51                   	push   ecx
    1aec:	ff 72 08             	push   DWORD PTR [edx+0x8]
    1aef:	e8 bb ff ff ff       	call   1aaf <fun9>
    1af4:	83 c4 10             	add    esp,0x10
    1af7:	8d 44 00 01          	lea    eax,[eax+eax*1+0x1]
    1afb:	eb d3                	jmp    1ad0 <fun9+0x21>
    1afd:	b8 ff ff ff ff       	mov    eax,0xffffffff
    1b02:	eb cc                	jmp    1ad0 <fun9+0x21>

00001b04 <phase_9>:
    1b04:	f3 0f 1e fb          	endbr32 
    1b08:	53                   	push   ebx
    1b09:	83 ec 0c             	sub    esp,0xc
    1b0c:	6a 0a                	push   0xa
    1b0e:	6a 00                	push   0x0
    1b10:	ff 74 24 1c          	push   DWORD PTR [esp+0x1c]
    1b14:	e8 fc ff ff ff       	call   1b15 <phase_9+0x11>
    1b19:	89 c3                	mov    ebx,eax
    1b1b:	8d 40 ff             	lea    eax,[eax-0x1]
    1b1e:	83 c4 10             	add    esp,0x10
    1b21:	3d e8 03 00 00       	cmp    eax,0x3e8
    1b26:	77 1a                	ja     1b42 <phase_9+0x3e>
    1b28:	83 ec 08             	sub    esp,0x8
    1b2b:	53                   	push   ebx
    1b2c:	68 20 60 00 00       	push   0x6020
    1b31:	e8 79 ff ff ff       	call   1aaf <fun9>
    1b36:	83 c4 10             	add    esp,0x10
    1b39:	85 c0                	test   eax,eax
    1b3b:	75 0c                	jne    1b49 <phase_9+0x45>
    1b3d:	83 c4 08             	add    esp,0x8
    1b40:	5b                   	pop    ebx
    1b41:	c3                   	ret    
    1b42:	e8 10 03 00 00       	call   1e57 <explode_bomb>
    1b47:	eb df                	jmp    1b28 <phase_9+0x24>
    1b49:	e8 09 03 00 00       	call   1e57 <explode_bomb>
    1b4e:	eb ed                	jmp    1b3d <phase_9+0x39>

00001b50 <sig_handler>:
    1b50:	f3 0f 1e fb          	endbr32 
    1b54:	56                   	push   esi
    1b55:	5e                   	pop    esi
    1b56:	83 ec 18             	sub    esp,0x18
    1b59:	68 a0 32 00 00       	push   0x32a0
    1b5e:	e8 fc ff ff ff       	call   1b5f <sig_handler+0xf>
    1b63:	c7 04 24 03 00 00 00 	mov    DWORD PTR [esp],0x3
    1b6a:	e8 fc ff ff ff       	call   1b6b <sig_handler+0x1b>
    1b6f:	83 c4 08             	add    esp,0x8
    1b72:	68 d9 33 00 00       	push   0x33d9
    1b77:	6a 01                	push   0x1
    1b79:	e8 fc ff ff ff       	call   1b7a <sig_handler+0x2a>
    1b7e:	83 c4 04             	add    esp,0x4
    1b81:	ff 35 00 00 00 00    	push   DWORD PTR ds:0x0
    1b87:	e8 fc ff ff ff       	call   1b88 <sig_handler+0x38>
    1b8c:	c7 04 24 01 00 00 00 	mov    DWORD PTR [esp],0x1
    1b93:	e8 fc ff ff ff       	call   1b94 <sig_handler+0x44>
    1b98:	c7 04 24 e1 33 00 00 	mov    DWORD PTR [esp],0x33e1
    1b9f:	e8 fc ff ff ff       	call   1ba0 <sig_handler+0x50>
    1ba4:	c7 04 24 10 00 00 00 	mov    DWORD PTR [esp],0x10
    1bab:	e8 fc ff ff ff       	call   1bac <sig_handler+0x5c>

00001bb0 <invalid_phase>:
    1bb0:	f3 0f 1e fb          	endbr32 
    1bb4:	56                   	push   esi
    1bb5:	5e                   	pop    esi
    1bb6:	83 ec 10             	sub    esp,0x10
    1bb9:	ff 74 24 14          	push   DWORD PTR [esp+0x14]
    1bbd:	68 e9 33 00 00       	push   0x33e9
    1bc2:	6a 01                	push   0x1
    1bc4:	e8 fc ff ff ff       	call   1bc5 <invalid_phase+0x15>
    1bc9:	c7 04 24 08 00 00 00 	mov    DWORD PTR [esp],0x8
    1bd0:	e8 fc ff ff ff       	call   1bd1 <invalid_phase+0x21>

00001bd5 <string_length>:
    1bd5:	f3 0f 1e fb          	endbr32 
    1bd9:	8b 54 24 04          	mov    edx,DWORD PTR [esp+0x4]
    1bdd:	80 3a 00             	cmp    BYTE PTR [edx],0x0
    1be0:	74 0f                	je     1bf1 <string_length+0x1c>
    1be2:	b8 00 00 00 00       	mov    eax,0x0
    1be7:	83 c0 01             	add    eax,0x1
    1bea:	80 3c 02 00          	cmp    BYTE PTR [edx+eax*1],0x0
    1bee:	75 f7                	jne    1be7 <string_length+0x12>
    1bf0:	c3                   	ret    
    1bf1:	b8 00 00 00 00       	mov    eax,0x0
    1bf6:	c3                   	ret    

00001bf7 <strings_not_equal>:
    1bf7:	f3 0f 1e fb          	endbr32 
    1bfb:	57                   	push   edi
    1bfc:	56                   	push   esi
    1bfd:	53                   	push   ebx
    1bfe:	8b 5c 24 10          	mov    ebx,DWORD PTR [esp+0x10]
    1c02:	8b 74 24 14          	mov    esi,DWORD PTR [esp+0x14]
    1c06:	53                   	push   ebx
    1c07:	e8 c9 ff ff ff       	call   1bd5 <string_length>
    1c0c:	89 c7                	mov    edi,eax
    1c0e:	89 34 24             	mov    DWORD PTR [esp],esi
    1c11:	e8 bf ff ff ff       	call   1bd5 <string_length>
    1c16:	83 c4 04             	add    esp,0x4
    1c19:	89 c2                	mov    edx,eax
    1c1b:	b8 01 00 00 00       	mov    eax,0x1
    1c20:	39 d7                	cmp    edi,edx
    1c22:	75 2b                	jne    1c4f <strings_not_equal+0x58>
    1c24:	0f b6 03             	movzx  eax,BYTE PTR [ebx]
    1c27:	84 c0                	test   al,al
    1c29:	74 18                	je     1c43 <strings_not_equal+0x4c>
    1c2b:	38 06                	cmp    BYTE PTR [esi],al
    1c2d:	75 1b                	jne    1c4a <strings_not_equal+0x53>
    1c2f:	83 c3 01             	add    ebx,0x1
    1c32:	83 c6 01             	add    esi,0x1
    1c35:	0f b6 03             	movzx  eax,BYTE PTR [ebx]
    1c38:	84 c0                	test   al,al
    1c3a:	75 ef                	jne    1c2b <strings_not_equal+0x34>
    1c3c:	b8 00 00 00 00       	mov    eax,0x0
    1c41:	eb 0c                	jmp    1c4f <strings_not_equal+0x58>
    1c43:	b8 00 00 00 00       	mov    eax,0x0
    1c48:	eb 05                	jmp    1c4f <strings_not_equal+0x58>
    1c4a:	b8 01 00 00 00       	mov    eax,0x1
    1c4f:	5b                   	pop    ebx
    1c50:	5e                   	pop    esi
    1c51:	5f                   	pop    edi
    1c52:	c3                   	ret    

00001c53 <initialize_bomb>:
    1c53:	f3 0f 1e fb          	endbr32 
    1c57:	56                   	push   esi
    1c58:	53                   	push   ebx
    1c59:	81 ec 00 10 00 00    	sub    esp,0x1000
    1c5f:	83 0c 24 00          	or     DWORD PTR [esp],0x0
    1c63:	81 ec 00 10 00 00    	sub    esp,0x1000
    1c69:	83 0c 24 00          	or     DWORD PTR [esp],0x0
    1c6d:	83 ec 4c             	sub    esp,0x4c
    1c70:	68 50 1b 00 00       	push   0x1b50
    1c75:	6a 02                	push   0x2
    1c77:	e8 fc ff ff ff       	call   1c78 <initialize_bomb+0x25>
    1c7c:	83 c4 08             	add    esp,0x8
    1c7f:	6a 40                	push   0x40
    1c81:	8d 84 24 0c 20 00 00 	lea    eax,[esp+0x200c]
    1c88:	50                   	push   eax
    1c89:	e8 fc ff ff ff       	call   1c8a <initialize_bomb+0x37>
    1c8e:	83 c4 10             	add    esp,0x10
    1c91:	85 c0                	test   eax,eax
    1c93:	75 4a                	jne    1cdf <initialize_bomb+0x8c>
    1c95:	89 c3                	mov    ebx,eax
    1c97:	a1 40 65 00 00       	mov    eax,ds:0x6540
    1c9c:	8d b4 24 00 20 00 00 	lea    esi,[esp+0x2000]
    1ca3:	85 c0                	test   eax,eax
    1ca5:	74 1f                	je     1cc6 <initialize_bomb+0x73>
    1ca7:	83 ec 08             	sub    esp,0x8
    1caa:	56                   	push   esi
    1cab:	50                   	push   eax
    1cac:	e8 fc ff ff ff       	call   1cad <initialize_bomb+0x5a>
    1cb1:	83 c4 10             	add    esp,0x10
    1cb4:	85 c0                	test   eax,eax
    1cb6:	74 60                	je     1d18 <initialize_bomb+0xc5>
    1cb8:	83 c3 01             	add    ebx,0x1
    1cbb:	8b 04 9d 40 65 00 00 	mov    eax,DWORD PTR [ebx*4+0x6540]
    1cc2:	85 c0                	test   eax,eax
    1cc4:	75 e1                	jne    1ca7 <initialize_bomb+0x54>
    1cc6:	83 ec 0c             	sub    esp,0xc
    1cc9:	68 10 33 00 00       	push   0x3310
    1cce:	e8 fc ff ff ff       	call   1ccf <initialize_bomb+0x7c>
    1cd3:	c7 04 24 08 00 00 00 	mov    DWORD PTR [esp],0x8
    1cda:	e8 fc ff ff ff       	call   1cdb <initialize_bomb+0x88>
    1cdf:	83 ec 0c             	sub    esp,0xc
    1ce2:	68 d8 32 00 00       	push   0x32d8
    1ce7:	e8 fc ff ff ff       	call   1ce8 <initialize_bomb+0x95>
    1cec:	c7 04 24 08 00 00 00 	mov    DWORD PTR [esp],0x8
    1cf3:	e8 fc ff ff ff       	call   1cf4 <initialize_bomb+0xa1>
    1cf8:	83 ec 04             	sub    esp,0x4
    1cfb:	8d 44 24 04          	lea    eax,[esp+0x4]
    1cff:	50                   	push   eax
    1d00:	68 fa 33 00 00       	push   0x33fa
    1d05:	6a 01                	push   0x1
    1d07:	e8 fc ff ff ff       	call   1d08 <initialize_bomb+0xb5>
    1d0c:	c7 04 24 08 00 00 00 	mov    DWORD PTR [esp],0x8
    1d13:	e8 fc ff ff ff       	call   1d14 <initialize_bomb+0xc1>
    1d18:	83 ec 0c             	sub    esp,0xc
    1d1b:	8d 44 24 0c          	lea    eax,[esp+0xc]
    1d1f:	50                   	push   eax
    1d20:	e8 e9 0b 00 00       	call   290e <init_driver>
    1d25:	83 c4 10             	add    esp,0x10
    1d28:	85 c0                	test   eax,eax
    1d2a:	78 cc                	js     1cf8 <initialize_bomb+0xa5>
    1d2c:	81 c4 44 20 00 00    	add    esp,0x2044
    1d32:	5b                   	pop    ebx
    1d33:	5e                   	pop    esi
    1d34:	c3                   	ret    

00001d35 <initialize_bomb_solve>:
    1d35:	f3 0f 1e fb          	endbr32 
    1d39:	c3                   	ret    

00001d3a <blank_line>:
    1d3a:	f3 0f 1e fb          	endbr32 
    1d3e:	56                   	push   esi
    1d3f:	53                   	push   ebx
    1d40:	83 ec 04             	sub    esp,0x4
    1d43:	8b 74 24 10          	mov    esi,DWORD PTR [esp+0x10]
    1d47:	0f b6 1e             	movzx  ebx,BYTE PTR [esi]
    1d4a:	84 db                	test   bl,bl
    1d4c:	74 1b                	je     1d69 <blank_line+0x2f>
    1d4e:	e8 fc ff ff ff       	call   1d4f <blank_line+0x15>
    1d53:	83 c6 01             	add    esi,0x1
    1d56:	0f be db             	movsx  ebx,bl
    1d59:	8b 00                	mov    eax,DWORD PTR [eax]
    1d5b:	f6 44 58 01 20       	test   BYTE PTR [eax+ebx*2+0x1],0x20
    1d60:	75 e5                	jne    1d47 <blank_line+0xd>
    1d62:	b8 00 00 00 00       	mov    eax,0x0
    1d67:	eb 05                	jmp    1d6e <blank_line+0x34>
    1d69:	b8 01 00 00 00       	mov    eax,0x1
    1d6e:	83 c4 04             	add    esp,0x4
    1d71:	5b                   	pop    ebx
    1d72:	5e                   	pop    esi
    1d73:	c3                   	ret    

00001d74 <skip>:
    1d74:	f3 0f 1e fb          	endbr32 
    1d78:	53                   	push   ebx
    1d79:	83 ec 08             	sub    esp,0x8
    1d7c:	83 ec 04             	sub    esp,0x4
    1d7f:	ff 35 70 67 00 00    	push   DWORD PTR ds:0x6770
    1d85:	6a 55                	push   0x55
    1d87:	6b 05 6c 67 00 00 55 	imul   eax,DWORD PTR ds:0x676c,0x55
    1d8e:	05 80 67 00 00       	add    eax,0x6780
    1d93:	50                   	push   eax
    1d94:	e8 fc ff ff ff       	call   1d95 <skip+0x21>
    1d99:	89 c3                	mov    ebx,eax
    1d9b:	83 c4 10             	add    esp,0x10
    1d9e:	85 c0                	test   eax,eax
    1da0:	74 10                	je     1db2 <skip+0x3e>
    1da2:	83 ec 0c             	sub    esp,0xc
    1da5:	50                   	push   eax
    1da6:	e8 8f ff ff ff       	call   1d3a <blank_line>
    1dab:	83 c4 10             	add    esp,0x10
    1dae:	85 c0                	test   eax,eax
    1db0:	75 ca                	jne    1d7c <skip+0x8>
    1db2:	89 d8                	mov    eax,ebx
    1db4:	83 c4 08             	add    esp,0x8
    1db7:	5b                   	pop    ebx
    1db8:	c3                   	ret    

00001db9 <send_msg>:
    1db9:	f3 0f 1e fb          	endbr32 
    1dbd:	53                   	push   ebx
    1dbe:	8d 84 24 00 c0 ff ff 	lea    eax,[esp-0x4000]
    1dc5:	81 ec 00 10 00 00    	sub    esp,0x1000
    1dcb:	83 0c 24 00          	or     DWORD PTR [esp],0x0
    1dcf:	39 c4                	cmp    esp,eax
    1dd1:	75 f2                	jne    1dc5 <send_msg+0xc>
    1dd3:	83 ec 08             	sub    esp,0x8
    1dd6:	8b 0d 6c 67 00 00    	mov    ecx,DWORD PTR ds:0x676c
    1ddc:	8d 41 ff             	lea    eax,[ecx-0x1]
    1ddf:	6b c0 55             	imul   eax,eax,0x55
    1de2:	05 80 67 00 00       	add    eax,0x6780
    1de7:	83 bc 24 10 40 00 00 	cmp    DWORD PTR [esp+0x4010],0x0
    1dee:	00 
    1def:	ba 14 34 00 00       	mov    edx,0x3414
    1df4:	bb 1c 34 00 00       	mov    ebx,0x341c
    1df9:	0f 44 d3             	cmove  edx,ebx
    1dfc:	50                   	push   eax
    1dfd:	51                   	push   ecx
    1dfe:	52                   	push   edx
    1dff:	ff 35 20 65 00 00    	push   DWORD PTR ds:0x6520
    1e05:	68 25 34 00 00       	push   0x3425
    1e0a:	68 00 20 00 00       	push   0x2000
    1e0f:	6a 01                	push   0x1
    1e11:	8d 9c 24 1c 20 00 00 	lea    ebx,[esp+0x201c]
    1e18:	53                   	push   ebx
    1e19:	e8 fc ff ff ff       	call   1e1a <send_msg+0x61>
    1e1e:	83 c4 20             	add    esp,0x20
    1e21:	54                   	push   esp
    1e22:	6a 00                	push   0x0
    1e24:	53                   	push   ebx
    1e25:	68 20 61 00 00       	push   0x6120
    1e2a:	e8 9f 0c 00 00       	call   2ace <driver_post>
    1e2f:	83 c4 10             	add    esp,0x10
    1e32:	85 c0                	test   eax,eax
    1e34:	78 08                	js     1e3e <send_msg+0x85>
    1e36:	81 c4 08 40 00 00    	add    esp,0x4008
    1e3c:	5b                   	pop    ebx
    1e3d:	c3                   	ret    
    1e3e:	83 ec 0c             	sub    esp,0xc
    1e41:	8d 44 24 0c          	lea    eax,[esp+0xc]
    1e45:	50                   	push   eax
    1e46:	e8 fc ff ff ff       	call   1e47 <send_msg+0x8e>
    1e4b:	c7 04 24 00 00 00 00 	mov    DWORD PTR [esp],0x0
    1e52:	e8 fc ff ff ff       	call   1e53 <send_msg+0x9a>

00001e57 <explode_bomb>:
    1e57:	f3 0f 1e fb          	endbr32 
    1e5b:	56                   	push   esi
    1e5c:	5e                   	pop    esi
    1e5d:	83 ec 18             	sub    esp,0x18
    1e60:	68 31 34 00 00       	push   0x3431
    1e65:	e8 fc ff ff ff       	call   1e66 <explode_bomb+0xf>
    1e6a:	c7 04 24 3a 34 00 00 	mov    DWORD PTR [esp],0x343a
    1e71:	e8 fc ff ff ff       	call   1e72 <explode_bomb+0x1b>
    1e76:	c7 04 24 00 00 00 00 	mov    DWORD PTR [esp],0x0
    1e7d:	e8 37 ff ff ff       	call   1db9 <send_msg>
    1e82:	c7 04 24 48 33 00 00 	mov    DWORD PTR [esp],0x3348
    1e89:	e8 fc ff ff ff       	call   1e8a <explode_bomb+0x33>
    1e8e:	c7 04 24 08 00 00 00 	mov    DWORD PTR [esp],0x8
    1e95:	e8 fc ff ff ff       	call   1e96 <explode_bomb+0x3f>

00001e9a <read_six_numbers>:
    1e9a:	f3 0f 1e fb          	endbr32 
    1e9e:	83 ec 0c             	sub    esp,0xc
    1ea1:	8b 44 24 14          	mov    eax,DWORD PTR [esp+0x14]
    1ea5:	8d 50 14             	lea    edx,[eax+0x14]
    1ea8:	52                   	push   edx
    1ea9:	8d 50 10             	lea    edx,[eax+0x10]
    1eac:	52                   	push   edx
    1ead:	8d 50 0c             	lea    edx,[eax+0xc]
    1eb0:	52                   	push   edx
    1eb1:	8d 50 08             	lea    edx,[eax+0x8]
    1eb4:	52                   	push   edx
    1eb5:	8d 50 04             	lea    edx,[eax+0x4]
    1eb8:	52                   	push   edx
    1eb9:	50                   	push   eax
    1eba:	68 51 34 00 00       	push   0x3451
    1ebf:	ff 74 24 2c          	push   DWORD PTR [esp+0x2c]
    1ec3:	e8 fc ff ff ff       	call   1ec4 <read_six_numbers+0x2a>
    1ec8:	83 c4 20             	add    esp,0x20
    1ecb:	83 f8 05             	cmp    eax,0x5
    1ece:	7e 04                	jle    1ed4 <read_six_numbers+0x3a>
    1ed0:	83 c4 0c             	add    esp,0xc
    1ed3:	c3                   	ret    
    1ed4:	e8 7e ff ff ff       	call   1e57 <explode_bomb>

00001ed9 <read_line>:
    1ed9:	f3 0f 1e fb          	endbr32 
    1edd:	57                   	push   edi
    1ede:	56                   	push   esi
    1edf:	53                   	push   ebx
    1ee0:	e8 8f fe ff ff       	call   1d74 <skip>
    1ee5:	85 c0                	test   eax,eax
    1ee7:	74 45                	je     1f2e <read_line+0x55>
    1ee9:	8b 15 6c 67 00 00    	mov    edx,DWORD PTR ds:0x676c
    1eef:	6b da 55             	imul   ebx,edx,0x55
    1ef2:	81 c3 80 67 00 00    	add    ebx,0x6780
    1ef8:	b9 ff ff ff ff       	mov    ecx,0xffffffff
    1efd:	b8 00 00 00 00       	mov    eax,0x0
    1f02:	89 df                	mov    edi,ebx
    1f04:	f2 ae                	repnz scas al,BYTE PTR es:[edi]
    1f06:	f7 d1                	not    ecx
    1f08:	83 e9 01             	sub    ecx,0x1
    1f0b:	83 f9 53             	cmp    ecx,0x53
    1f0e:	0f 8f 8e 00 00 00    	jg     1fa2 <read_line+0xc9>
    1f14:	6b c2 55             	imul   eax,edx,0x55
    1f17:	c6 84 01 7f 67 00 00 	mov    BYTE PTR [ecx+eax*1+0x677f],0x0
    1f1e:	00 
    1f1f:	83 c2 01             	add    edx,0x1
    1f22:	89 15 6c 67 00 00    	mov    DWORD PTR ds:0x676c,edx
    1f28:	89 d8                	mov    eax,ebx
    1f2a:	5b                   	pop    ebx
    1f2b:	5e                   	pop    esi
    1f2c:	5f                   	pop    edi
    1f2d:	c3                   	ret    
    1f2e:	a1 00 00 00 00       	mov    eax,ds:0x0
    1f33:	39 05 70 67 00 00    	cmp    DWORD PTR ds:0x6770,eax
    1f39:	74 1e                	je     1f59 <read_line+0x80>
    1f3b:	83 ec 0c             	sub    esp,0xc
    1f3e:	68 81 34 00 00       	push   0x3481
    1f43:	e8 fc ff ff ff       	call   1f44 <read_line+0x6b>
    1f48:	83 c4 10             	add    esp,0x10
    1f4b:	85 c0                	test   eax,eax
    1f4d:	74 23                	je     1f72 <read_line+0x99>
    1f4f:	83 ec 0c             	sub    esp,0xc
    1f52:	6a 00                	push   0x0
    1f54:	e8 fc ff ff ff       	call   1f55 <read_line+0x7c>
    1f59:	83 ec 0c             	sub    esp,0xc
    1f5c:	68 63 34 00 00       	push   0x3463
    1f61:	e8 fc ff ff ff       	call   1f62 <read_line+0x89>
    1f66:	c7 04 24 08 00 00 00 	mov    DWORD PTR [esp],0x8
    1f6d:	e8 fc ff ff ff       	call   1f6e <read_line+0x95>
    1f72:	a1 00 00 00 00       	mov    eax,ds:0x0
    1f77:	a3 70 67 00 00       	mov    ds:0x6770,eax
    1f7c:	e8 f3 fd ff ff       	call   1d74 <skip>
    1f81:	85 c0                	test   eax,eax
    1f83:	0f 85 60 ff ff ff    	jne    1ee9 <read_line+0x10>
    1f89:	83 ec 0c             	sub    esp,0xc
    1f8c:	68 63 34 00 00       	push   0x3463
    1f91:	e8 fc ff ff ff       	call   1f92 <read_line+0xb9>
    1f96:	c7 04 24 00 00 00 00 	mov    DWORD PTR [esp],0x0
    1f9d:	e8 fc ff ff ff       	call   1f9e <read_line+0xc5>
    1fa2:	83 ec 0c             	sub    esp,0xc
    1fa5:	68 8c 34 00 00       	push   0x348c
    1faa:	e8 fc ff ff ff       	call   1fab <read_line+0xd2>
    1faf:	a1 6c 67 00 00       	mov    eax,ds:0x676c
    1fb4:	8d 50 01             	lea    edx,[eax+0x1]
    1fb7:	89 15 6c 67 00 00    	mov    DWORD PTR ds:0x676c,edx
    1fbd:	6b c0 55             	imul   eax,eax,0x55
    1fc0:	05 80 67 00 00       	add    eax,0x6780
    1fc5:	ba a7 34 00 00       	mov    edx,0x34a7
    1fca:	b9 04 00 00 00       	mov    ecx,0x4
    1fcf:	89 c7                	mov    edi,eax
    1fd1:	89 d6                	mov    esi,edx
    1fd3:	f3 a5                	rep movs DWORD PTR es:[edi],DWORD PTR ds:[esi]
    1fd5:	e8 7d fe ff ff       	call   1e57 <explode_bomb>

00001fda <phase_defused>:
    1fda:	f3 0f 1e fb          	endbr32 
    1fde:	83 ec 18             	sub    esp,0x18
    1fe1:	6a 01                	push   0x1
    1fe3:	e8 d1 fd ff ff       	call   1db9 <send_msg>
    1fe8:	83 c4 10             	add    esp,0x10
    1feb:	83 3d 6c 67 00 00 09 	cmp    DWORD PTR ds:0x676c,0x9
    1ff2:	74 04                	je     1ff8 <phase_defused+0x1e>
    1ff4:	83 c4 0c             	add    esp,0xc
    1ff7:	c3                   	ret    
    1ff8:	83 ec 0c             	sub    esp,0xc
    1ffb:	68 6c 33 00 00       	push   0x336c
    2000:	e8 fc ff ff ff       	call   2001 <phase_defused+0x27>
    2005:	c7 04 24 98 33 00 00 	mov    DWORD PTR [esp],0x3398
    200c:	e8 fc ff ff ff       	call   200d <phase_defused+0x33>
    2011:	83 c4 10             	add    esp,0x10
    2014:	eb de                	jmp    1ff4 <phase_defused+0x1a>

00002016 <sigalrm_handler>:
    2016:	f3 0f 1e fb          	endbr32 
    201a:	56                   	push   esi
    201b:	5e                   	pop    esi
    201c:	83 ec 0c             	sub    esp,0xc
    201f:	6a 00                	push   0x0
    2021:	68 30 37 00 00       	push   0x3730
    2026:	6a 01                	push   0x1
    2028:	ff 35 00 00 00 00    	push   DWORD PTR ds:0x0
    202e:	e8 fc ff ff ff       	call   202f <sigalrm_handler+0x19>
    2033:	c7 04 24 01 00 00 00 	mov    DWORD PTR [esp],0x1
    203a:	e8 fc ff ff ff       	call   203b <sigalrm_handler+0x25>

0000203f <rio_readlineb>:
    203f:	55                   	push   ebp
    2040:	57                   	push   edi
    2041:	56                   	push   esi
    2042:	53                   	push   ebx
    2043:	83 ec 1c             	sub    esp,0x1c
    2046:	89 d6                	mov    esi,edx
    2048:	83 f9 01             	cmp    ecx,0x1
    204b:	76 7e                	jbe    20cb <rio_readlineb+0x8c>
    204d:	89 c3                	mov    ebx,eax
    204f:	8d 44 0a ff          	lea    eax,[edx+ecx*1-0x1]
    2053:	89 44 24 0c          	mov    DWORD PTR [esp+0xc],eax
    2057:	bd 01 00 00 00       	mov    ebp,0x1
    205c:	8d 7b 0c             	lea    edi,[ebx+0xc]
    205f:	eb 4f                	jmp    20b0 <rio_readlineb+0x71>
    2061:	e8 fc ff ff ff       	call   2062 <rio_readlineb+0x23>
    2066:	83 38 04             	cmp    DWORD PTR [eax],0x4
    2069:	75 4e                	jne    20b9 <rio_readlineb+0x7a>
    206b:	83 ec 04             	sub    esp,0x4
    206e:	68 00 20 00 00       	push   0x2000
    2073:	57                   	push   edi
    2074:	ff 33                	push   DWORD PTR [ebx]
    2076:	e8 fc ff ff ff       	call   2077 <rio_readlineb+0x38>
    207b:	89 43 04             	mov    DWORD PTR [ebx+0x4],eax
    207e:	83 c4 10             	add    esp,0x10
    2081:	85 c0                	test   eax,eax
    2083:	78 dc                	js     2061 <rio_readlineb+0x22>
    2085:	74 37                	je     20be <rio_readlineb+0x7f>
    2087:	89 7b 08             	mov    DWORD PTR [ebx+0x8],edi
    208a:	8b 53 08             	mov    edx,DWORD PTR [ebx+0x8]
    208d:	0f b6 0a             	movzx  ecx,BYTE PTR [edx]
    2090:	83 c2 01             	add    edx,0x1
    2093:	89 53 08             	mov    DWORD PTR [ebx+0x8],edx
    2096:	83 e8 01             	sub    eax,0x1
    2099:	89 43 04             	mov    DWORD PTR [ebx+0x4],eax
    209c:	83 c6 01             	add    esi,0x1
    209f:	88 4e ff             	mov    BYTE PTR [esi-0x1],cl
    20a2:	80 f9 0a             	cmp    cl,0xa
    20a5:	74 2f                	je     20d6 <rio_readlineb+0x97>
    20a7:	83 c5 01             	add    ebp,0x1
    20aa:	3b 74 24 0c          	cmp    esi,DWORD PTR [esp+0xc]
    20ae:	74 22                	je     20d2 <rio_readlineb+0x93>
    20b0:	8b 43 04             	mov    eax,DWORD PTR [ebx+0x4]
    20b3:	85 c0                	test   eax,eax
    20b5:	7e b4                	jle    206b <rio_readlineb+0x2c>
    20b7:	eb d1                	jmp    208a <rio_readlineb+0x4b>
    20b9:	b8 ff ff ff ff       	mov    eax,0xffffffff
    20be:	85 c0                	test   eax,eax
    20c0:	75 21                	jne    20e3 <rio_readlineb+0xa4>
    20c2:	83 fd 01             	cmp    ebp,0x1
    20c5:	75 0f                	jne    20d6 <rio_readlineb+0x97>
    20c7:	89 c5                	mov    ebp,eax
    20c9:	eb 0e                	jmp    20d9 <rio_readlineb+0x9a>
    20cb:	bd 01 00 00 00       	mov    ebp,0x1
    20d0:	eb 04                	jmp    20d6 <rio_readlineb+0x97>
    20d2:	8b 74 24 0c          	mov    esi,DWORD PTR [esp+0xc]
    20d6:	c6 06 00             	mov    BYTE PTR [esi],0x0
    20d9:	89 e8                	mov    eax,ebp
    20db:	83 c4 1c             	add    esp,0x1c
    20de:	5b                   	pop    ebx
    20df:	5e                   	pop    esi
    20e0:	5f                   	pop    edi
    20e1:	5d                   	pop    ebp
    20e2:	c3                   	ret    
    20e3:	bd ff ff ff ff       	mov    ebp,0xffffffff
    20e8:	eb ef                	jmp    20d9 <rio_readlineb+0x9a>

000020ea <submitr>:
    20ea:	f3 0f 1e fb          	endbr32 
    20ee:	55                   	push   ebp
    20ef:	57                   	push   edi
    20f0:	56                   	push   esi
    20f1:	53                   	push   ebx
    20f2:	8d 84 24 00 60 ff ff 	lea    eax,[esp-0xa000]
    20f9:	81 ec 00 10 00 00    	sub    esp,0x1000
    20ff:	83 0c 24 00          	or     DWORD PTR [esp],0x0
    2103:	39 c4                	cmp    esp,eax
    2105:	75 f2                	jne    20f9 <submitr+0xf>
    2107:	83 ec 50             	sub    esp,0x50
    210a:	8b ac 24 78 a0 00 00 	mov    ebp,DWORD PTR [esp+0xa078]
    2111:	c7 84 24 24 20 00 00 	mov    DWORD PTR [esp+0x2024],0x0
    2118:	00 00 00 00 
    211c:	6a 00                	push   0x0
    211e:	6a 01                	push   0x1
    2120:	6a 02                	push   0x2
    2122:	e8 fc ff ff ff       	call   2123 <submitr+0x39>
    2127:	89 44 24 18          	mov    DWORD PTR [esp+0x18],eax
    212b:	83 c4 10             	add    esp,0x10
    212e:	85 c0                	test   eax,eax
    2130:	0f 88 26 01 00 00    	js     225c <submitr+0x172>
    2136:	83 ec 0c             	sub    esp,0xc
    2139:	ff b4 24 6c a0 00 00 	push   DWORD PTR [esp+0xa06c]
    2140:	e8 fc ff ff ff       	call   2141 <submitr+0x57>
    2145:	83 c4 10             	add    esp,0x10
    2148:	85 c0                	test   eax,eax
    214a:	0f 84 61 01 00 00    	je     22b1 <submitr+0x1c7>
    2150:	8d 9c 24 30 a0 00 00 	lea    ebx,[esp+0xa030]
    2157:	c7 84 24 30 a0 00 00 	mov    DWORD PTR [esp+0xa030],0x0
    215e:	00 00 00 00 
    2162:	c7 84 24 34 a0 00 00 	mov    DWORD PTR [esp+0xa034],0x0
    2169:	00 00 00 00 
    216d:	c7 84 24 38 a0 00 00 	mov    DWORD PTR [esp+0xa038],0x0
    2174:	00 00 00 00 
    2178:	c7 84 24 3c a0 00 00 	mov    DWORD PTR [esp+0xa03c],0x0
    217f:	00 00 00 00 
    2183:	66 c7 84 24 30 a0 00 	mov    WORD PTR [esp+0xa030],0x2
    218a:	00 02 00 
    218d:	6a 0c                	push   0xc
    218f:	ff 70 0c             	push   DWORD PTR [eax+0xc]
    2192:	8b 40 10             	mov    eax,DWORD PTR [eax+0x10]
    2195:	ff 30                	push   DWORD PTR [eax]
    2197:	8d 84 24 40 a0 00 00 	lea    eax,[esp+0xa040]
    219e:	50                   	push   eax
    219f:	e8 fc ff ff ff       	call   21a0 <submitr+0xb6>
    21a4:	0f b7 84 24 74 a0 00 	movzx  eax,WORD PTR [esp+0xa074]
    21ab:	00 
    21ac:	66 c1 c0 08          	rol    ax,0x8
    21b0:	66 89 84 24 42 a0 00 	mov    WORD PTR [esp+0xa042],ax
    21b7:	00 
    21b8:	83 c4 0c             	add    esp,0xc
    21bb:	6a 10                	push   0x10
    21bd:	53                   	push   ebx
    21be:	ff 74 24 14          	push   DWORD PTR [esp+0x14]
    21c2:	e8 fc ff ff ff       	call   21c3 <submitr+0xd9>
    21c7:	83 c4 10             	add    esp,0x10
    21ca:	85 c0                	test   eax,eax
    21cc:	0f 88 55 01 00 00    	js     2327 <submitr+0x23d>
    21d2:	be ff ff ff ff       	mov    esi,0xffffffff
    21d7:	b8 00 00 00 00       	mov    eax,0x0
    21dc:	89 f1                	mov    ecx,esi
    21de:	89 ef                	mov    edi,ebp
    21e0:	f2 ae                	repnz scas al,BYTE PTR es:[edi]
    21e2:	89 cb                	mov    ebx,ecx
    21e4:	f7 d3                	not    ebx
    21e6:	89 f1                	mov    ecx,esi
    21e8:	8b bc 24 68 a0 00 00 	mov    edi,DWORD PTR [esp+0xa068]
    21ef:	f2 ae                	repnz scas al,BYTE PTR es:[edi]
    21f1:	89 4c 24 0c          	mov    DWORD PTR [esp+0xc],ecx
    21f5:	89 f1                	mov    ecx,esi
    21f7:	8b bc 24 6c a0 00 00 	mov    edi,DWORD PTR [esp+0xa06c]
    21fe:	f2 ae                	repnz scas al,BYTE PTR es:[edi]
    2200:	89 ca                	mov    edx,ecx
    2202:	f7 d2                	not    edx
    2204:	89 f1                	mov    ecx,esi
    2206:	8b bc 24 70 a0 00 00 	mov    edi,DWORD PTR [esp+0xa070]
    220d:	f2 ae                	repnz scas al,BYTE PTR es:[edi]
    220f:	2b 54 24 0c          	sub    edx,DWORD PTR [esp+0xc]
    2213:	29 ca                	sub    edx,ecx
    2215:	8d 44 5b fd          	lea    eax,[ebx+ebx*2-0x3]
    2219:	8d 44 02 7b          	lea    eax,[edx+eax*1+0x7b]
    221d:	3d 00 20 00 00       	cmp    eax,0x2000
    2222:	0f 87 67 01 00 00    	ja     238f <submitr+0x2a5>
    2228:	8d 94 24 24 40 00 00 	lea    edx,[esp+0x4024]
    222f:	b9 00 08 00 00       	mov    ecx,0x800
    2234:	b8 00 00 00 00       	mov    eax,0x0
    2239:	89 d7                	mov    edi,edx
    223b:	f3 ab                	rep stos DWORD PTR es:[edi],eax
    223d:	b9 ff ff ff ff       	mov    ecx,0xffffffff
    2242:	89 ef                	mov    edi,ebp
    2244:	f2 ae                	repnz scas al,BYTE PTR es:[edi]
    2246:	f7 d1                	not    ecx
    2248:	89 cf                	mov    edi,ecx
    224a:	83 ef 01             	sub    edi,0x1
    224d:	0f 84 eb 04 00 00    	je     273e <submitr+0x654>
    2253:	89 eb                	mov    ebx,ebp
    2255:	89 d6                	mov    esi,edx
    2257:	e9 cc 01 00 00       	jmp    2428 <submitr+0x33e>
    225c:	8b 84 24 78 a0 00 00 	mov    eax,DWORD PTR [esp+0xa078]
    2263:	c7 00 45 72 72 6f    	mov    DWORD PTR [eax],0x6f727245
    2269:	c7 40 04 72 3a 20 43 	mov    DWORD PTR [eax+0x4],0x43203a72
    2270:	c7 40 08 6c 69 65 6e 	mov    DWORD PTR [eax+0x8],0x6e65696c
    2277:	c7 40 0c 74 20 75 6e 	mov    DWORD PTR [eax+0xc],0x6e752074
    227e:	c7 40 10 61 62 6c 65 	mov    DWORD PTR [eax+0x10],0x656c6261
    2285:	c7 40 14 20 74 6f 20 	mov    DWORD PTR [eax+0x14],0x206f7420
    228c:	c7 40 18 63 72 65 61 	mov    DWORD PTR [eax+0x18],0x61657263
    2293:	c7 40 1c 74 65 20 73 	mov    DWORD PTR [eax+0x1c],0x73206574
    229a:	c7 40 20 6f 63 6b 65 	mov    DWORD PTR [eax+0x20],0x656b636f
    22a1:	66 c7 40 24 74 00    	mov    WORD PTR [eax+0x24],0x74
    22a7:	b8 ff ff ff ff       	mov    eax,0xffffffff
    22ac:	e9 3f 03 00 00       	jmp    25f0 <submitr+0x506>
    22b1:	8b 84 24 78 a0 00 00 	mov    eax,DWORD PTR [esp+0xa078]
    22b8:	c7 00 45 72 72 6f    	mov    DWORD PTR [eax],0x6f727245
    22be:	c7 40 04 72 3a 20 44 	mov    DWORD PTR [eax+0x4],0x44203a72
    22c5:	c7 40 08 4e 53 20 69 	mov    DWORD PTR [eax+0x8],0x6920534e
    22cc:	c7 40 0c 73 20 75 6e 	mov    DWORD PTR [eax+0xc],0x6e752073
    22d3:	c7 40 10 61 62 6c 65 	mov    DWORD PTR [eax+0x10],0x656c6261
    22da:	c7 40 14 20 74 6f 20 	mov    DWORD PTR [eax+0x14],0x206f7420
    22e1:	c7 40 18 72 65 73 6f 	mov    DWORD PTR [eax+0x18],0x6f736572
    22e8:	c7 40 1c 6c 76 65 20 	mov    DWORD PTR [eax+0x1c],0x2065766c
    22ef:	c7 40 20 73 65 72 76 	mov    DWORD PTR [eax+0x20],0x76726573
    22f6:	c7 40 24 65 72 20 61 	mov    DWORD PTR [eax+0x24],0x61207265
    22fd:	c7 40 28 64 64 72 65 	mov    DWORD PTR [eax+0x28],0x65726464
    2304:	66 c7 40 2c 73 73    	mov    WORD PTR [eax+0x2c],0x7373
    230a:	c6 40 2e 00          	mov    BYTE PTR [eax+0x2e],0x0
    230e:	83 ec 0c             	sub    esp,0xc
    2311:	ff 74 24 14          	push   DWORD PTR [esp+0x14]
    2315:	e8 fc ff ff ff       	call   2316 <submitr+0x22c>
    231a:	83 c4 10             	add    esp,0x10
    231d:	b8 ff ff ff ff       	mov    eax,0xffffffff
    2322:	e9 c9 02 00 00       	jmp    25f0 <submitr+0x506>
    2327:	8b 84 24 78 a0 00 00 	mov    eax,DWORD PTR [esp+0xa078]
    232e:	c7 00 45 72 72 6f    	mov    DWORD PTR [eax],0x6f727245
    2334:	c7 40 04 72 3a 20 55 	mov    DWORD PTR [eax+0x4],0x55203a72
    233b:	c7 40 08 6e 61 62 6c 	mov    DWORD PTR [eax+0x8],0x6c62616e
    2342:	c7 40 0c 65 20 74 6f 	mov    DWORD PTR [eax+0xc],0x6f742065
    2349:	c7 40 10 20 63 6f 6e 	mov    DWORD PTR [eax+0x10],0x6e6f6320
    2350:	c7 40 14 6e 65 63 74 	mov    DWORD PTR [eax+0x14],0x7463656e
    2357:	c7 40 18 20 74 6f 20 	mov    DWORD PTR [eax+0x18],0x206f7420
    235e:	c7 40 1c 74 68 65 20 	mov    DWORD PTR [eax+0x1c],0x20656874
    2365:	c7 40 20 73 65 72 76 	mov    DWORD PTR [eax+0x20],0x76726573
    236c:	66 c7 40 24 65 72    	mov    WORD PTR [eax+0x24],0x7265
    2372:	c6 40 26 00          	mov    BYTE PTR [eax+0x26],0x0
    2376:	83 ec 0c             	sub    esp,0xc
    2379:	ff 74 24 14          	push   DWORD PTR [esp+0x14]
    237d:	e8 fc ff ff ff       	call   237e <submitr+0x294>
    2382:	83 c4 10             	add    esp,0x10
    2385:	b8 ff ff ff ff       	mov    eax,0xffffffff
    238a:	e9 61 02 00 00       	jmp    25f0 <submitr+0x506>
    238f:	8b 84 24 78 a0 00 00 	mov    eax,DWORD PTR [esp+0xa078]
    2396:	c7 00 45 72 72 6f    	mov    DWORD PTR [eax],0x6f727245
    239c:	c7 40 04 72 3a 20 52 	mov    DWORD PTR [eax+0x4],0x52203a72
    23a3:	c7 40 08 65 73 75 6c 	mov    DWORD PTR [eax+0x8],0x6c757365
    23aa:	c7 40 0c 74 20 73 74 	mov    DWORD PTR [eax+0xc],0x74732074
    23b1:	c7 40 10 72 69 6e 67 	mov    DWORD PTR [eax+0x10],0x676e6972
    23b8:	c7 40 14 20 74 6f 6f 	mov    DWORD PTR [eax+0x14],0x6f6f7420
    23bf:	c7 40 18 20 6c 61 72 	mov    DWORD PTR [eax+0x18],0x72616c20
    23c6:	c7 40 1c 67 65 2e 20 	mov    DWORD PTR [eax+0x1c],0x202e6567
    23cd:	c7 40 20 49 6e 63 72 	mov    DWORD PTR [eax+0x20],0x72636e49
    23d4:	c7 40 24 65 61 73 65 	mov    DWORD PTR [eax+0x24],0x65736165
    23db:	c7 40 28 20 53 55 42 	mov    DWORD PTR [eax+0x28],0x42555320
    23e2:	c7 40 2c 4d 49 54 52 	mov    DWORD PTR [eax+0x2c],0x5254494d
    23e9:	c7 40 30 5f 4d 41 58 	mov    DWORD PTR [eax+0x30],0x58414d5f
    23f0:	c7 40 34 42 55 46 00 	mov    DWORD PTR [eax+0x34],0x465542
    23f7:	83 ec 0c             	sub    esp,0xc
    23fa:	ff 74 24 14          	push   DWORD PTR [esp+0x14]
    23fe:	e8 fc ff ff ff       	call   23ff <submitr+0x315>
    2403:	83 c4 10             	add    esp,0x10
    2406:	b8 ff ff ff ff       	mov    eax,0xffffffff
    240b:	e9 e0 01 00 00       	jmp    25f0 <submitr+0x506>
    2410:	3c 5f                	cmp    al,0x5f
    2412:	75 76                	jne    248a <submitr+0x3a0>
    2414:	88 06                	mov    BYTE PTR [esi],al
    2416:	8d 76 01             	lea    esi,[esi+0x1]
    2419:	83 c3 01             	add    ebx,0x1
    241c:	8d 44 3d 00          	lea    eax,[ebp+edi*1+0x0]
    2420:	39 c3                	cmp    ebx,eax
    2422:	0f 84 16 03 00 00    	je     273e <submitr+0x654>
    2428:	0f b6 03             	movzx  eax,BYTE PTR [ebx]
    242b:	8d 50 d6             	lea    edx,[eax-0x2a]
    242e:	80 fa 0f             	cmp    dl,0xf
    2431:	77 dd                	ja     2410 <submitr+0x326>
    2433:	b9 d9 ff 00 00       	mov    ecx,0xffd9
    2438:	0f a3 d1             	bt     ecx,edx
    243b:	72 d7                	jb     2414 <submitr+0x32a>
    243d:	3c 5f                	cmp    al,0x5f
    243f:	74 d3                	je     2414 <submitr+0x32a>
    2441:	8d 50 e0             	lea    edx,[eax-0x20]
    2444:	80 fa 5f             	cmp    dl,0x5f
    2447:	76 08                	jbe    2451 <submitr+0x367>
    2449:	3c 09                	cmp    al,0x9
    244b:	0f 85 97 02 00 00    	jne    26e8 <submitr+0x5fe>
    2451:	83 ec 0c             	sub    esp,0xc
    2454:	0f b6 c0             	movzx  eax,al
    2457:	50                   	push   eax
    2458:	68 3a 38 00 00       	push   0x383a
    245d:	6a 08                	push   0x8
    245f:	6a 01                	push   0x1
    2461:	8d 44 24 34          	lea    eax,[esp+0x34]
    2465:	50                   	push   eax
    2466:	e8 fc ff ff ff       	call   2467 <submitr+0x37d>
    246b:	0f b6 44 24 38       	movzx  eax,BYTE PTR [esp+0x38]
    2470:	88 06                	mov    BYTE PTR [esi],al
    2472:	0f b6 44 24 39       	movzx  eax,BYTE PTR [esp+0x39]
    2477:	88 46 01             	mov    BYTE PTR [esi+0x1],al
    247a:	0f b6 44 24 3a       	movzx  eax,BYTE PTR [esp+0x3a]
    247f:	88 46 02             	mov    BYTE PTR [esi+0x2],al
    2482:	83 c4 20             	add    esp,0x20
    2485:	8d 76 03             	lea    esi,[esi+0x3]
    2488:	eb 8f                	jmp    2419 <submitr+0x32f>
    248a:	89 c2                	mov    edx,eax
    248c:	83 e2 df             	and    edx,0xffffffdf
    248f:	83 ea 41             	sub    edx,0x41
    2492:	80 fa 19             	cmp    dl,0x19
    2495:	0f 86 79 ff ff ff    	jbe    2414 <submitr+0x32a>
    249b:	3c 20                	cmp    al,0x20
    249d:	75 a2                	jne    2441 <submitr+0x357>
    249f:	c6 06 2b             	mov    BYTE PTR [esi],0x2b
    24a2:	8d 76 01             	lea    esi,[esi+0x1]
    24a5:	e9 6f ff ff ff       	jmp    2419 <submitr+0x32f>
    24aa:	01 c6                	add    esi,eax
    24ac:	29 c3                	sub    ebx,eax
    24ae:	0f 84 ec 02 00 00    	je     27a0 <submitr+0x6b6>
    24b4:	83 ec 04             	sub    esp,0x4
    24b7:	53                   	push   ebx
    24b8:	56                   	push   esi
    24b9:	57                   	push   edi
    24ba:	e8 fc ff ff ff       	call   24bb <submitr+0x3d1>
    24bf:	83 c4 10             	add    esp,0x10
    24c2:	85 c0                	test   eax,eax
    24c4:	7f e4                	jg     24aa <submitr+0x3c0>
    24c6:	e8 fc ff ff ff       	call   24c7 <submitr+0x3dd>
    24cb:	83 38 04             	cmp    DWORD PTR [eax],0x4
    24ce:	0f 85 a8 01 00 00    	jne    267c <submitr+0x592>
    24d4:	89 e8                	mov    eax,ebp
    24d6:	eb d2                	jmp    24aa <submitr+0x3c0>
    24d8:	8b 84 24 78 a0 00 00 	mov    eax,DWORD PTR [esp+0xa078]
    24df:	c7 00 45 72 72 6f    	mov    DWORD PTR [eax],0x6f727245
    24e5:	c7 40 04 72 3a 20 43 	mov    DWORD PTR [eax+0x4],0x43203a72
    24ec:	c7 40 08 6c 69 65 6e 	mov    DWORD PTR [eax+0x8],0x6e65696c
    24f3:	c7 40 0c 74 20 75 6e 	mov    DWORD PTR [eax+0xc],0x6e752074
    24fa:	c7 40 10 61 62 6c 65 	mov    DWORD PTR [eax+0x10],0x656c6261
    2501:	c7 40 14 20 74 6f 20 	mov    DWORD PTR [eax+0x14],0x206f7420
    2508:	c7 40 18 72 65 61 64 	mov    DWORD PTR [eax+0x18],0x64616572
    250f:	c7 40 1c 20 66 69 72 	mov    DWORD PTR [eax+0x1c],0x72696620
    2516:	c7 40 20 73 74 20 68 	mov    DWORD PTR [eax+0x20],0x68207473
    251d:	c7 40 24 65 61 64 65 	mov    DWORD PTR [eax+0x24],0x65646165
    2524:	c7 40 28 72 20 66 72 	mov    DWORD PTR [eax+0x28],0x72662072
    252b:	c7 40 2c 6f 6d 20 73 	mov    DWORD PTR [eax+0x2c],0x73206d6f
    2532:	c7 40 30 65 72 76 65 	mov    DWORD PTR [eax+0x30],0x65767265
    2539:	66 c7 40 34 72 00    	mov    WORD PTR [eax+0x34],0x72
    253f:	83 ec 0c             	sub    esp,0xc
    2542:	ff 74 24 14          	push   DWORD PTR [esp+0x14]
    2546:	e8 fc ff ff ff       	call   2547 <submitr+0x45d>
    254b:	83 c4 10             	add    esp,0x10
    254e:	b8 ff ff ff ff       	mov    eax,0xffffffff
    2553:	e9 98 00 00 00       	jmp    25f0 <submitr+0x506>
    2558:	83 ec 08             	sub    esp,0x8
    255b:	8d 54 24 28          	lea    edx,[esp+0x28]
    255f:	52                   	push   edx
    2560:	50                   	push   eax
    2561:	68 54 37 00 00       	push   0x3754
    2566:	6a ff                	push   0xffffffff
    2568:	6a 01                	push   0x1
    256a:	ff b4 24 94 a0 00 00 	push   DWORD PTR [esp+0xa094]
    2571:	e8 fc ff ff ff       	call   2572 <submitr+0x488>
    2576:	83 c4 14             	add    esp,0x14
    2579:	ff 74 24 14          	push   DWORD PTR [esp+0x14]
    257d:	e8 fc ff ff ff       	call   257e <submitr+0x494>
    2582:	83 c4 10             	add    esp,0x10
    2585:	b8 ff ff ff ff       	mov    eax,0xffffffff
    258a:	eb 64                	jmp    25f0 <submitr+0x506>
    258c:	b9 00 20 00 00       	mov    ecx,0x2000
    2591:	8d 94 24 24 60 00 00 	lea    edx,[esp+0x6024]
    2598:	8d 84 24 24 80 00 00 	lea    eax,[esp+0x8024]
    259f:	e8 9b fa ff ff       	call   203f <rio_readlineb>
    25a4:	85 c0                	test   eax,eax
    25a6:	7e 53                	jle    25fb <submitr+0x511>
    25a8:	83 ec 08             	sub    esp,0x8
    25ab:	8d 84 24 2c 60 00 00 	lea    eax,[esp+0x602c]
    25b2:	50                   	push   eax
    25b3:	ff b4 24 84 a0 00 00 	push   DWORD PTR [esp+0xa084]
    25ba:	e8 fc ff ff ff       	call   25bb <submitr+0x4d1>
    25bf:	83 c4 04             	add    esp,0x4
    25c2:	ff 74 24 14          	push   DWORD PTR [esp+0x14]
    25c6:	e8 fc ff ff ff       	call   25c7 <submitr+0x4dd>
    25cb:	bf 55 38 00 00       	mov    edi,0x3855
    25d0:	b9 03 00 00 00       	mov    ecx,0x3
    25d5:	8b b4 24 88 a0 00 00 	mov    esi,DWORD PTR [esp+0xa088]
    25dc:	f3 a6                	repz cmps BYTE PTR ds:[esi],BYTE PTR es:[edi]
    25de:	0f 97 c0             	seta   al
    25e1:	1c 00                	sbb    al,0x0
    25e3:	83 c4 10             	add    esp,0x10
    25e6:	84 c0                	test   al,al
    25e8:	0f 95 c0             	setne  al
    25eb:	0f b6 c0             	movzx  eax,al
    25ee:	f7 d8                	neg    eax
    25f0:	81 c4 4c a0 00 00    	add    esp,0xa04c
    25f6:	5b                   	pop    ebx
    25f7:	5e                   	pop    esi
    25f8:	5f                   	pop    edi
    25f9:	5d                   	pop    ebp
    25fa:	c3                   	ret    
    25fb:	8b 84 24 78 a0 00 00 	mov    eax,DWORD PTR [esp+0xa078]
    2602:	c7 00 45 72 72 6f    	mov    DWORD PTR [eax],0x6f727245
    2608:	c7 40 04 72 3a 20 43 	mov    DWORD PTR [eax+0x4],0x43203a72
    260f:	c7 40 08 6c 69 65 6e 	mov    DWORD PTR [eax+0x8],0x6e65696c
    2616:	c7 40 0c 74 20 75 6e 	mov    DWORD PTR [eax+0xc],0x6e752074
    261d:	c7 40 10 61 62 6c 65 	mov    DWORD PTR [eax+0x10],0x656c6261
    2624:	c7 40 14 20 74 6f 20 	mov    DWORD PTR [eax+0x14],0x206f7420
    262b:	c7 40 18 72 65 61 64 	mov    DWORD PTR [eax+0x18],0x64616572
    2632:	c7 40 1c 20 73 74 61 	mov    DWORD PTR [eax+0x1c],0x61747320
    2639:	c7 40 20 74 75 73 20 	mov    DWORD PTR [eax+0x20],0x20737574
    2640:	c7 40 24 6d 65 73 73 	mov    DWORD PTR [eax+0x24],0x7373656d
    2647:	c7 40 28 61 67 65 20 	mov    DWORD PTR [eax+0x28],0x20656761
    264e:	c7 40 2c 66 72 6f 6d 	mov    DWORD PTR [eax+0x2c],0x6d6f7266
    2655:	c7 40 30 20 73 65 72 	mov    DWORD PTR [eax+0x30],0x72657320
    265c:	c7 40 34 76 65 72 00 	mov    DWORD PTR [eax+0x34],0x726576
    2663:	83 ec 0c             	sub    esp,0xc
    2666:	ff 74 24 14          	push   DWORD PTR [esp+0x14]
    266a:	e8 fc ff ff ff       	call   266b <submitr+0x581>
    266f:	83 c4 10             	add    esp,0x10
    2672:	b8 ff ff ff ff       	mov    eax,0xffffffff
    2677:	e9 74 ff ff ff       	jmp    25f0 <submitr+0x506>
    267c:	8b 84 24 78 a0 00 00 	mov    eax,DWORD PTR [esp+0xa078]
    2683:	c7 00 45 72 72 6f    	mov    DWORD PTR [eax],0x6f727245
    2689:	c7 40 04 72 3a 20 43 	mov    DWORD PTR [eax+0x4],0x43203a72
    2690:	c7 40 08 6c 69 65 6e 	mov    DWORD PTR [eax+0x8],0x6e65696c
    2697:	c7 40 0c 74 20 75 6e 	mov    DWORD PTR [eax+0xc],0x6e752074
    269e:	c7 40 10 61 62 6c 65 	mov    DWORD PTR [eax+0x10],0x656c6261
    26a5:	c7 40 14 20 74 6f 20 	mov    DWORD PTR [eax+0x14],0x206f7420
    26ac:	c7 40 18 77 72 69 74 	mov    DWORD PTR [eax+0x18],0x74697277
    26b3:	c7 40 1c 65 20 74 6f 	mov    DWORD PTR [eax+0x1c],0x6f742065
    26ba:	c7 40 20 20 74 68 65 	mov    DWORD PTR [eax+0x20],0x65687420
    26c1:	c7 40 24 20 73 65 72 	mov    DWORD PTR [eax+0x24],0x72657320
    26c8:	c7 40 28 76 65 72 00 	mov    DWORD PTR [eax+0x28],0x726576
    26cf:	83 ec 0c             	sub    esp,0xc
    26d2:	ff 74 24 14          	push   DWORD PTR [esp+0x14]
    26d6:	e8 fc ff ff ff       	call   26d7 <submitr+0x5ed>
    26db:	83 c4 10             	add    esp,0x10
    26de:	b8 ff ff ff ff       	mov    eax,0xffffffff
    26e3:	e9 08 ff ff ff       	jmp    25f0 <submitr+0x506>
    26e8:	a1 84 37 00 00       	mov    eax,ds:0x3784
    26ed:	8b bc 24 78 a0 00 00 	mov    edi,DWORD PTR [esp+0xa078]
    26f4:	89 07                	mov    DWORD PTR [edi],eax
    26f6:	a1 c3 37 00 00       	mov    eax,ds:0x37c3
    26fb:	8b bc 24 78 a0 00 00 	mov    edi,DWORD PTR [esp+0xa078]
    2702:	89 47 3f             	mov    DWORD PTR [edi+0x3f],eax
    2705:	8b 84 24 78 a0 00 00 	mov    eax,DWORD PTR [esp+0xa078]
    270c:	8d 78 04             	lea    edi,[eax+0x4]
    270f:	83 e7 fc             	and    edi,0xfffffffc
    2712:	29 f8                	sub    eax,edi
    2714:	be 84 37 00 00       	mov    esi,0x3784
    2719:	29 c6                	sub    esi,eax
    271b:	83 c0 43             	add    eax,0x43
    271e:	c1 e8 02             	shr    eax,0x2
    2721:	89 c1                	mov    ecx,eax
    2723:	f3 a5                	rep movs DWORD PTR es:[edi],DWORD PTR ds:[esi]
    2725:	83 ec 0c             	sub    esp,0xc
    2728:	ff 74 24 14          	push   DWORD PTR [esp+0x14]
    272c:	e8 fc ff ff ff       	call   272d <submitr+0x643>
    2731:	83 c4 10             	add    esp,0x10
    2734:	b8 ff ff ff ff       	mov    eax,0xffffffff
    2739:	e9 b2 fe ff ff       	jmp    25f0 <submitr+0x506>
    273e:	8d 84 24 24 40 00 00 	lea    eax,[esp+0x4024]
    2745:	50                   	push   eax
    2746:	ff b4 24 74 a0 00 00 	push   DWORD PTR [esp+0xa074]
    274d:	ff b4 24 74 a0 00 00 	push   DWORD PTR [esp+0xa074]
    2754:	ff b4 24 74 a0 00 00 	push   DWORD PTR [esp+0xa074]
    275b:	68 c8 37 00 00       	push   0x37c8
    2760:	68 00 20 00 00       	push   0x2000
    2765:	6a 01                	push   0x1
    2767:	8d bc 24 40 60 00 00 	lea    edi,[esp+0x6040]
    276e:	57                   	push   edi
    276f:	e8 fc ff ff ff       	call   2770 <submitr+0x686>
    2774:	b9 ff ff ff ff       	mov    ecx,0xffffffff
    2779:	b8 00 00 00 00       	mov    eax,0x0
    277e:	f2 ae                	repnz scas al,BYTE PTR es:[edi]
    2780:	f7 d1                	not    ecx
    2782:	83 c4 20             	add    esp,0x20
    2785:	8d b4 24 24 60 00 00 	lea    esi,[esp+0x6024]
    278c:	bd 00 00 00 00       	mov    ebp,0x0
    2791:	89 cb                	mov    ebx,ecx
    2793:	83 eb 01             	sub    ebx,0x1
    2796:	8b 7c 24 08          	mov    edi,DWORD PTR [esp+0x8]
    279a:	0f 85 14 fd ff ff    	jne    24b4 <submitr+0x3ca>
    27a0:	8b 44 24 08          	mov    eax,DWORD PTR [esp+0x8]
    27a4:	89 84 24 24 80 00 00 	mov    DWORD PTR [esp+0x8024],eax
    27ab:	c7 84 24 28 80 00 00 	mov    DWORD PTR [esp+0x8028],0x0
    27b2:	00 00 00 00 
    27b6:	8d 84 24 30 80 00 00 	lea    eax,[esp+0x8030]
    27bd:	89 84 24 2c 80 00 00 	mov    DWORD PTR [esp+0x802c],eax
    27c4:	b9 00 20 00 00       	mov    ecx,0x2000
    27c9:	8d 94 24 24 60 00 00 	lea    edx,[esp+0x6024]
    27d0:	8d 84 24 24 80 00 00 	lea    eax,[esp+0x8024]
    27d7:	e8 63 f8 ff ff       	call   203f <rio_readlineb>
    27dc:	85 c0                	test   eax,eax
    27de:	0f 8e f4 fc ff ff    	jle    24d8 <submitr+0x3ee>
    27e4:	83 ec 0c             	sub    esp,0xc
    27e7:	8d 44 24 2c          	lea    eax,[esp+0x2c]
    27eb:	50                   	push   eax
    27ec:	8d 84 24 30 20 00 00 	lea    eax,[esp+0x2030]
    27f3:	50                   	push   eax
    27f4:	8d 84 24 38 20 00 00 	lea    eax,[esp+0x2038]
    27fb:	50                   	push   eax
    27fc:	68 41 38 00 00       	push   0x3841
    2801:	8d 84 24 40 60 00 00 	lea    eax,[esp+0x6040]
    2808:	50                   	push   eax
    2809:	e8 fc ff ff ff       	call   280a <submitr+0x720>
    280e:	8b 84 24 40 20 00 00 	mov    eax,DWORD PTR [esp+0x2040]
    2815:	83 c4 20             	add    esp,0x20
    2818:	3d c8 00 00 00       	cmp    eax,0xc8
    281d:	0f 85 35 fd ff ff    	jne    2558 <submitr+0x46e>
    2823:	8d 9c 24 24 60 00 00 	lea    ebx,[esp+0x6024]
    282a:	bf 52 38 00 00       	mov    edi,0x3852
    282f:	b9 03 00 00 00       	mov    ecx,0x3
    2834:	89 de                	mov    esi,ebx
    2836:	f3 a6                	repz cmps BYTE PTR ds:[esi],BYTE PTR es:[edi]
    2838:	0f 97 c0             	seta   al
    283b:	1c 00                	sbb    al,0x0
    283d:	84 c0                	test   al,al
    283f:	0f 84 47 fd ff ff    	je     258c <submitr+0x4a2>
    2845:	b9 00 20 00 00       	mov    ecx,0x2000
    284a:	89 da                	mov    edx,ebx
    284c:	8d 84 24 24 80 00 00 	lea    eax,[esp+0x8024]
    2853:	e8 e7 f7 ff ff       	call   203f <rio_readlineb>
    2858:	85 c0                	test   eax,eax
    285a:	7f ce                	jg     282a <submitr+0x740>
    285c:	8b 84 24 78 a0 00 00 	mov    eax,DWORD PTR [esp+0xa078]
    2863:	c7 00 45 72 72 6f    	mov    DWORD PTR [eax],0x6f727245
    2869:	c7 40 04 72 3a 20 43 	mov    DWORD PTR [eax+0x4],0x43203a72
    2870:	c7 40 08 6c 69 65 6e 	mov    DWORD PTR [eax+0x8],0x6e65696c
    2877:	c7 40 0c 74 20 75 6e 	mov    DWORD PTR [eax+0xc],0x6e752074
    287e:	c7 40 10 61 62 6c 65 	mov    DWORD PTR [eax+0x10],0x656c6261
    2885:	c7 40 14 20 74 6f 20 	mov    DWORD PTR [eax+0x14],0x206f7420
    288c:	c7 40 18 72 65 61 64 	mov    DWORD PTR [eax+0x18],0x64616572
    2893:	c7 40 1c 20 68 65 61 	mov    DWORD PTR [eax+0x1c],0x61656820
    289a:	c7 40 20 64 65 72 73 	mov    DWORD PTR [eax+0x20],0x73726564
    28a1:	c7 40 24 20 66 72 6f 	mov    DWORD PTR [eax+0x24],0x6f726620
    28a8:	c7 40 28 6d 20 73 65 	mov    DWORD PTR [eax+0x28],0x6573206d
    28af:	c7 40 2c 72 76 65 72 	mov    DWORD PTR [eax+0x2c],0x72657672
    28b6:	c6 40 30 00          	mov    BYTE PTR [eax+0x30],0x0
    28ba:	83 ec 0c             	sub    esp,0xc
    28bd:	ff 74 24 14          	push   DWORD PTR [esp+0x14]
    28c1:	e8 fc ff ff ff       	call   28c2 <submitr+0x7d8>
    28c6:	83 c4 10             	add    esp,0x10
    28c9:	b8 ff ff ff ff       	mov    eax,0xffffffff
    28ce:	e9 1d fd ff ff       	jmp    25f0 <submitr+0x506>

000028d3 <init_timeout>:
    28d3:	f3 0f 1e fb          	endbr32 
    28d7:	53                   	push   ebx
    28d8:	83 ec 08             	sub    esp,0x8
    28db:	8b 5c 24 10          	mov    ebx,DWORD PTR [esp+0x10]
    28df:	85 db                	test   ebx,ebx
    28e1:	75 05                	jne    28e8 <init_timeout+0x15>
    28e3:	83 c4 08             	add    esp,0x8
    28e6:	5b                   	pop    ebx
    28e7:	c3                   	ret    
    28e8:	83 ec 08             	sub    esp,0x8
    28eb:	68 16 20 00 00       	push   0x2016
    28f0:	6a 0e                	push   0xe
    28f2:	e8 fc ff ff ff       	call   28f3 <init_timeout+0x20>
    28f7:	85 db                	test   ebx,ebx
    28f9:	b8 00 00 00 00       	mov    eax,0x0
    28fe:	0f 48 d8             	cmovs  ebx,eax
    2901:	89 1c 24             	mov    DWORD PTR [esp],ebx
    2904:	e8 fc ff ff ff       	call   2905 <init_timeout+0x32>
    2909:	83 c4 10             	add    esp,0x10
    290c:	eb d5                	jmp    28e3 <init_timeout+0x10>

0000290e <init_driver>:
    290e:	f3 0f 1e fb          	endbr32 
    2912:	57                   	push   edi
    2913:	56                   	push   esi
    2914:	53                   	push   ebx
    2915:	83 ec 18             	sub    esp,0x18
    2918:	8b 74 24 28          	mov    esi,DWORD PTR [esp+0x28]
    291c:	6a 01                	push   0x1
    291e:	6a 0d                	push   0xd
    2920:	e8 fc ff ff ff       	call   2921 <init_driver+0x13>
    2925:	83 c4 08             	add    esp,0x8
    2928:	6a 01                	push   0x1
    292a:	6a 1d                	push   0x1d
    292c:	e8 fc ff ff ff       	call   292d <init_driver+0x1f>
    2931:	83 c4 08             	add    esp,0x8
    2934:	6a 01                	push   0x1
    2936:	6a 1d                	push   0x1d
    2938:	e8 fc ff ff ff       	call   2939 <init_driver+0x2b>
    293d:	83 c4 0c             	add    esp,0xc
    2940:	6a 00                	push   0x0
    2942:	6a 01                	push   0x1
    2944:	6a 02                	push   0x2
    2946:	e8 fc ff ff ff       	call   2947 <init_driver+0x39>
    294b:	83 c4 10             	add    esp,0x10
    294e:	85 c0                	test   eax,eax
    2950:	0f 88 94 00 00 00    	js     29ea <init_driver+0xdc>
    2956:	89 c3                	mov    ebx,eax
    2958:	83 ec 0c             	sub    esp,0xc
    295b:	68 58 38 00 00       	push   0x3858
    2960:	e8 fc ff ff ff       	call   2961 <init_driver+0x53>
    2965:	83 c4 10             	add    esp,0x10
    2968:	85 c0                	test   eax,eax
    296a:	0f 84 c5 00 00 00    	je     2a35 <init_driver+0x127>
    2970:	89 e7                	mov    edi,esp
    2972:	c7 04 24 00 00 00 00 	mov    DWORD PTR [esp],0x0
    2979:	c7 44 24 04 00 00 00 	mov    DWORD PTR [esp+0x4],0x0
    2980:	00 
    2981:	c7 44 24 08 00 00 00 	mov    DWORD PTR [esp+0x8],0x0
    2988:	00 
    2989:	c7 44 24 0c 00 00 00 	mov    DWORD PTR [esp+0xc],0x0
    2990:	00 
    2991:	66 c7 04 24 02 00    	mov    WORD PTR [esp],0x2
    2997:	6a 0c                	push   0xc
    2999:	ff 70 0c             	push   DWORD PTR [eax+0xc]
    299c:	8b 40 10             	mov    eax,DWORD PTR [eax+0x10]
    299f:	ff 30                	push   DWORD PTR [eax]
    29a1:	8d 44 24 10          	lea    eax,[esp+0x10]
    29a5:	50                   	push   eax
    29a6:	e8 fc ff ff ff       	call   29a7 <init_driver+0x99>
    29ab:	66 c7 44 24 12 3b 6c 	mov    WORD PTR [esp+0x12],0x6c3b
    29b2:	83 c4 0c             	add    esp,0xc
    29b5:	6a 10                	push   0x10
    29b7:	57                   	push   edi
    29b8:	53                   	push   ebx
    29b9:	e8 fc ff ff ff       	call   29ba <init_driver+0xac>
    29be:	83 c4 10             	add    esp,0x10
    29c1:	85 c0                	test   eax,eax
    29c3:	0f 88 d8 00 00 00    	js     2aa1 <init_driver+0x193>
    29c9:	83 ec 0c             	sub    esp,0xc
    29cc:	53                   	push   ebx
    29cd:	e8 fc ff ff ff       	call   29ce <init_driver+0xc0>
    29d2:	66 c7 06 4f 4b       	mov    WORD PTR [esi],0x4b4f
    29d7:	c6 46 02 00          	mov    BYTE PTR [esi+0x2],0x0
    29db:	83 c4 10             	add    esp,0x10
    29de:	b8 00 00 00 00       	mov    eax,0x0
    29e3:	83 c4 10             	add    esp,0x10
    29e6:	5b                   	pop    ebx
    29e7:	5e                   	pop    esi
    29e8:	5f                   	pop    edi
    29e9:	c3                   	ret    
    29ea:	c7 06 45 72 72 6f    	mov    DWORD PTR [esi],0x6f727245
    29f0:	c7 46 04 72 3a 20 43 	mov    DWORD PTR [esi+0x4],0x43203a72
    29f7:	c7 46 08 6c 69 65 6e 	mov    DWORD PTR [esi+0x8],0x6e65696c
    29fe:	c7 46 0c 74 20 75 6e 	mov    DWORD PTR [esi+0xc],0x6e752074
    2a05:	c7 46 10 61 62 6c 65 	mov    DWORD PTR [esi+0x10],0x656c6261
    2a0c:	c7 46 14 20 74 6f 20 	mov    DWORD PTR [esi+0x14],0x206f7420
    2a13:	c7 46 18 63 72 65 61 	mov    DWORD PTR [esi+0x18],0x61657263
    2a1a:	c7 46 1c 74 65 20 73 	mov    DWORD PTR [esi+0x1c],0x73206574
    2a21:	c7 46 20 6f 63 6b 65 	mov    DWORD PTR [esi+0x20],0x656b636f
    2a28:	66 c7 46 24 74 00    	mov    WORD PTR [esi+0x24],0x74
    2a2e:	b8 ff ff ff ff       	mov    eax,0xffffffff
    2a33:	eb ae                	jmp    29e3 <init_driver+0xd5>
    2a35:	c7 06 45 72 72 6f    	mov    DWORD PTR [esi],0x6f727245
    2a3b:	c7 46 04 72 3a 20 44 	mov    DWORD PTR [esi+0x4],0x44203a72
    2a42:	c7 46 08 4e 53 20 69 	mov    DWORD PTR [esi+0x8],0x6920534e
    2a49:	c7 46 0c 73 20 75 6e 	mov    DWORD PTR [esi+0xc],0x6e752073
    2a50:	c7 46 10 61 62 6c 65 	mov    DWORD PTR [esi+0x10],0x656c6261
    2a57:	c7 46 14 20 74 6f 20 	mov    DWORD PTR [esi+0x14],0x206f7420
    2a5e:	c7 46 18 72 65 73 6f 	mov    DWORD PTR [esi+0x18],0x6f736572
    2a65:	c7 46 1c 6c 76 65 20 	mov    DWORD PTR [esi+0x1c],0x2065766c
    2a6c:	c7 46 20 73 65 72 76 	mov    DWORD PTR [esi+0x20],0x76726573
    2a73:	c7 46 24 65 72 20 61 	mov    DWORD PTR [esi+0x24],0x61207265
    2a7a:	c7 46 28 64 64 72 65 	mov    DWORD PTR [esi+0x28],0x65726464
    2a81:	66 c7 46 2c 73 73    	mov    WORD PTR [esi+0x2c],0x7373
    2a87:	c6 46 2e 00          	mov    BYTE PTR [esi+0x2e],0x0
    2a8b:	83 ec 0c             	sub    esp,0xc
    2a8e:	53                   	push   ebx
    2a8f:	e8 fc ff ff ff       	call   2a90 <init_driver+0x182>
    2a94:	83 c4 10             	add    esp,0x10
    2a97:	b8 ff ff ff ff       	mov    eax,0xffffffff
    2a9c:	e9 42 ff ff ff       	jmp    29e3 <init_driver+0xd5>
    2aa1:	83 ec 0c             	sub    esp,0xc
    2aa4:	68 58 38 00 00       	push   0x3858
    2aa9:	68 14 38 00 00       	push   0x3814
    2aae:	6a ff                	push   0xffffffff
    2ab0:	6a 01                	push   0x1
    2ab2:	56                   	push   esi
    2ab3:	e8 fc ff ff ff       	call   2ab4 <init_driver+0x1a6>
    2ab8:	83 c4 14             	add    esp,0x14
    2abb:	53                   	push   ebx
    2abc:	e8 fc ff ff ff       	call   2abd <init_driver+0x1af>
    2ac1:	83 c4 10             	add    esp,0x10
    2ac4:	b8 ff ff ff ff       	mov    eax,0xffffffff
    2ac9:	e9 15 ff ff ff       	jmp    29e3 <init_driver+0xd5>

00002ace <driver_post>:
    2ace:	f3 0f 1e fb          	endbr32 
    2ad2:	53                   	push   ebx
    2ad3:	83 ec 08             	sub    esp,0x8
    2ad6:	8b 54 24 10          	mov    edx,DWORD PTR [esp+0x10]
    2ada:	8b 44 24 18          	mov    eax,DWORD PTR [esp+0x18]
    2ade:	8b 5c 24 1c          	mov    ebx,DWORD PTR [esp+0x1c]
    2ae2:	85 c0                	test   eax,eax
    2ae4:	75 17                	jne    2afd <driver_post+0x2f>
    2ae6:	85 d2                	test   edx,edx
    2ae8:	74 05                	je     2aef <driver_post+0x21>
    2aea:	80 3a 00             	cmp    BYTE PTR [edx],0x0
    2aed:	75 34                	jne    2b23 <driver_post+0x55>
    2aef:	66 c7 03 4f 4b       	mov    WORD PTR [ebx],0x4b4f
    2af4:	c6 43 02 00          	mov    BYTE PTR [ebx+0x2],0x0
    2af8:	83 c4 08             	add    esp,0x8
    2afb:	5b                   	pop    ebx
    2afc:	c3                   	ret    
    2afd:	83 ec 04             	sub    esp,0x4
    2b00:	ff 74 24 18          	push   DWORD PTR [esp+0x18]
    2b04:	68 6d 38 00 00       	push   0x386d
    2b09:	6a 01                	push   0x1
    2b0b:	e8 fc ff ff ff       	call   2b0c <driver_post+0x3e>
    2b10:	66 c7 03 4f 4b       	mov    WORD PTR [ebx],0x4b4f
    2b15:	c6 43 02 00          	mov    BYTE PTR [ebx+0x2],0x0
    2b19:	83 c4 10             	add    esp,0x10
    2b1c:	b8 00 00 00 00       	mov    eax,0x0
    2b21:	eb d5                	jmp    2af8 <driver_post+0x2a>
    2b23:	83 ec 04             	sub    esp,0x4
    2b26:	53                   	push   ebx
    2b27:	ff 74 24 1c          	push   DWORD PTR [esp+0x1c]
    2b2b:	68 84 38 00 00       	push   0x3884
    2b30:	52                   	push   edx
    2b31:	68 95 38 00 00       	push   0x3895
    2b36:	68 6c 3b 00 00       	push   0x3b6c
    2b3b:	68 58 38 00 00       	push   0x3858
    2b40:	e8 a5 f5 ff ff       	call   20ea <submitr>
    2b45:	83 c4 20             	add    esp,0x20
    2b48:	eb ae                	jmp    2af8 <driver_post+0x2a>
    2b4a:	66 90                	xchg   ax,ax
    2b4c:	66 90                	xchg   ax,ax
    2b4e:	66 90                	xchg   ax,ax

00002b50 <__libc_csu_init>:
    2b50:	f3 0f 1e fb          	endbr32 
    2b54:	55                   	push   ebp
    2b55:	e8 6b 00 00 00       	call   2bc5 <__x86.get_pc_thunk.bp>
    2b5a:	81 c5 16 34 00 00    	add    ebp,0x3416
    2b60:	57                   	push   edi
    2b61:	56                   	push   esi
    2b62:	53                   	push   ebx
    2b63:	83 ec 0c             	sub    esp,0xc
    2b66:	89 eb                	mov    ebx,ebp
    2b68:	8b 7c 24 28          	mov    edi,DWORD PTR [esp+0x28]
    2b6c:	e8 8f e4 ff ff       	call   1000 <_init>
    2b71:	8d 9d fc fe ff ff    	lea    ebx,[ebp-0x104]
    2b77:	8d 85 f8 fe ff ff    	lea    eax,[ebp-0x108]
    2b7d:	29 c3                	sub    ebx,eax
    2b7f:	c1 fb 02             	sar    ebx,0x2
    2b82:	74 29                	je     2bad <__libc_csu_init+0x5d>
    2b84:	31 f6                	xor    esi,esi
    2b86:	8d b4 26 00 00 00 00 	lea    esi,[esi+eiz*1+0x0]
    2b8d:	8d 76 00             	lea    esi,[esi+0x0]
    2b90:	83 ec 04             	sub    esp,0x4
    2b93:	57                   	push   edi
    2b94:	ff 74 24 2c          	push   DWORD PTR [esp+0x2c]
    2b98:	ff 74 24 2c          	push   DWORD PTR [esp+0x2c]
    2b9c:	ff 94 b5 f8 fe ff ff 	call   DWORD PTR [ebp+esi*4-0x108]
    2ba3:	83 c6 01             	add    esi,0x1
    2ba6:	83 c4 10             	add    esp,0x10
    2ba9:	39 f3                	cmp    ebx,esi
    2bab:	75 e3                	jne    2b90 <__libc_csu_init+0x40>
    2bad:	83 c4 0c             	add    esp,0xc
    2bb0:	5b                   	pop    ebx
    2bb1:	5e                   	pop    esi
    2bb2:	5f                   	pop    edi
    2bb3:	5d                   	pop    ebp
    2bb4:	c3                   	ret    
    2bb5:	8d b4 26 00 00 00 00 	lea    esi,[esi+eiz*1+0x0]
    2bbc:	8d 74 26 00          	lea    esi,[esi+eiz*1+0x0]

00002bc0 <__libc_csu_fini>:
    2bc0:	f3 0f 1e fb          	endbr32 
    2bc4:	c3                   	ret    

00002bc5 <__x86.get_pc_thunk.bp>:
    2bc5:	8b 2c 24             	mov    ebp,DWORD PTR [esp]
    2bc8:	c3                   	ret    

Disassembly of section .fini:

00002bcc <_fini>:
    2bcc:	f3 0f 1e fb          	endbr32 
    2bd0:	53                   	push   ebx
    2bd1:	83 ec 08             	sub    esp,0x8
    2bd4:	e8 37 e8 ff ff       	call   1410 <__x86.get_pc_thunk.bx>
    2bd9:	81 c3 97 33 00 00    	add    ebx,0x3397
    2bdf:	83 c4 08             	add    esp,0x8
    2be2:	5b                   	pop    ebx
    2be3:	c3                   	ret    
